
eGTouch64/eGTouch64withX/eGTouchD:     file format elf64-x86-64


Disassembly of section .init:

0000000000402640 <_init>:
  402640:	48 83 ec 08          	sub    $0x8,%rsp
  402644:	48 8b 05 ad 89 23 00 	mov    0x2389ad(%rip),%rax        # 63aff8 <__gmon_start__>
  40264b:	48 85 c0             	test   %rax,%rax
  40264e:	74 05                	je     402655 <_init+0x15>
  402650:	e8 cb 07 00 00       	call   402e20 <__gmon_start__@plt>
  402655:	48 83 c4 08          	add    $0x8,%rsp
  402659:	c3                   	ret    

Disassembly of section .plt:

0000000000402660 <.plt>:
  402660:	ff 35 a2 89 23 00    	push   0x2389a2(%rip)        # 63b008 <_GLOBAL_OFFSET_TABLE_+0x8>
  402666:	ff 25 a4 89 23 00    	jmp    *0x2389a4(%rip)        # 63b010 <_GLOBAL_OFFSET_TABLE_+0x10>
  40266c:	0f 1f 40 00          	nopl   0x0(%rax)

0000000000402670 <ftell@plt>:
  402670:	ff 25 a2 89 23 00    	jmp    *0x2389a2(%rip)        # 63b018 <ftell@GLIBC_2.2.5>
  402676:	68 00 00 00 00       	push   $0x0
  40267b:	e9 e0 ff ff ff       	jmp    402660 <.plt>

0000000000402680 <pthread_cond_signal@plt>:
  402680:	ff 25 9a 89 23 00    	jmp    *0x23899a(%rip)        # 63b020 <pthread_cond_signal@GLIBC_2.3.2>
  402686:	68 01 00 00 00       	push   $0x1
  40268b:	e9 d0 ff ff ff       	jmp    402660 <.plt>

0000000000402690 <__errno_location@plt>:
  402690:	ff 25 92 89 23 00    	jmp    *0x238992(%rip)        # 63b028 <__errno_location@GLIBC_2.2.5>
  402696:	68 02 00 00 00       	push   $0x2
  40269b:	e9 c0 ff ff ff       	jmp    402660 <.plt>

00000000004026a0 <printf@plt>:
  4026a0:	ff 25 8a 89 23 00    	jmp    *0x23898a(%rip)        # 63b030 <printf@GLIBC_2.2.5>
  4026a6:	68 03 00 00 00       	push   $0x3
  4026ab:	e9 b0 ff ff ff       	jmp    402660 <.plt>

00000000004026b0 <rewind@plt>:
  4026b0:	ff 25 82 89 23 00    	jmp    *0x238982(%rip)        # 63b038 <rewind@GLIBC_2.2.5>
  4026b6:	68 04 00 00 00       	push   $0x4
  4026bb:	e9 a0 ff ff ff       	jmp    402660 <.plt>

00000000004026c0 <pthread_kill@plt>:
  4026c0:	ff 25 7a 89 23 00    	jmp    *0x23897a(%rip)        # 63b040 <pthread_kill@GLIBC_2.2.5>
  4026c6:	68 05 00 00 00       	push   $0x5
  4026cb:	e9 90 ff ff ff       	jmp    402660 <.plt>

00000000004026d0 <snd_ctl_pcm_next_device@plt>:
  4026d0:	ff 25 72 89 23 00    	jmp    *0x238972(%rip)        # 63b048 <snd_ctl_pcm_next_device@ALSA_0.9>
  4026d6:	68 06 00 00 00       	push   $0x6
  4026db:	e9 80 ff ff ff       	jmp    402660 <.plt>

00000000004026e0 <sprintf@plt>:
  4026e0:	ff 25 6a 89 23 00    	jmp    *0x23896a(%rip)        # 63b050 <sprintf@GLIBC_2.2.5>
  4026e6:	68 07 00 00 00       	push   $0x7
  4026eb:	e9 70 ff ff ff       	jmp    402660 <.plt>

00000000004026f0 <XRRConfigCurrentConfiguration@plt>:
  4026f0:	ff 25 62 89 23 00    	jmp    *0x238962(%rip)        # 63b058 <XRRConfigCurrentConfiguration>
  4026f6:	68 08 00 00 00       	push   $0x8
  4026fb:	e9 60 ff ff ff       	jmp    402660 <.plt>

0000000000402700 <strstr@plt>:
  402700:	ff 25 5a 89 23 00    	jmp    *0x23895a(%rip)        # 63b060 <strstr@GLIBC_2.2.5>
  402706:	68 09 00 00 00       	push   $0x9
  40270b:	e9 50 ff ff ff       	jmp    402660 <.plt>

0000000000402710 <getopt@plt>:
  402710:	ff 25 52 89 23 00    	jmp    *0x238952(%rip)        # 63b068 <getopt@GLIBC_2.2.5>
  402716:	68 0a 00 00 00       	push   $0xa
  40271b:	e9 40 ff ff ff       	jmp    402660 <.plt>

0000000000402720 <snd_pcm_hw_params_set_access@plt>:
  402720:	ff 25 4a 89 23 00    	jmp    *0x23894a(%rip)        # 63b070 <snd_pcm_hw_params_set_access@ALSA_0.9>
  402726:	68 0b 00 00 00       	push   $0xb
  40272b:	e9 30 ff ff ff       	jmp    402660 <.plt>

0000000000402730 <snd_ctl_card_info@plt>:
  402730:	ff 25 42 89 23 00    	jmp    *0x238942(%rip)        # 63b078 <snd_ctl_card_info@ALSA_0.9>
  402736:	68 0c 00 00 00       	push   $0xc
  40273b:	e9 20 ff ff ff       	jmp    402660 <.plt>

0000000000402740 <strerror@plt>:
  402740:	ff 25 3a 89 23 00    	jmp    *0x23893a(%rip)        # 63b080 <strerror@GLIBC_2.2.5>
  402746:	68 0d 00 00 00       	push   $0xd
  40274b:	e9 10 ff ff ff       	jmp    402660 <.plt>

0000000000402750 <write@plt>:
  402750:	ff 25 32 89 23 00    	jmp    *0x238932(%rip)        # 63b088 <write@GLIBC_2.2.5>
  402756:	68 0e 00 00 00       	push   $0xe
  40275b:	e9 00 ff ff ff       	jmp    402660 <.plt>

0000000000402760 <ctime@plt>:
  402760:	ff 25 2a 89 23 00    	jmp    *0x23892a(%rip)        # 63b090 <ctime@GLIBC_2.2.5>
  402766:	68 0f 00 00 00       	push   $0xf
  40276b:	e9 f0 fe ff ff       	jmp    402660 <.plt>

0000000000402770 <strlen@plt>:
  402770:	ff 25 22 89 23 00    	jmp    *0x238922(%rip)        # 63b098 <strlen@GLIBC_2.2.5>
  402776:	68 10 00 00 00       	push   $0x10
  40277b:	e9 e0 fe ff ff       	jmp    402660 <.plt>

0000000000402780 <vsprintf@plt>:
  402780:	ff 25 1a 89 23 00    	jmp    *0x23891a(%rip)        # 63b0a0 <vsprintf@GLIBC_2.2.5>
  402786:	68 11 00 00 00       	push   $0x11
  40278b:	e9 d0 fe ff ff       	jmp    402660 <.plt>

0000000000402790 <strncmp@plt>:
  402790:	ff 25 12 89 23 00    	jmp    *0x238912(%rip)        # 63b0a8 <strncmp@GLIBC_2.2.5>
  402796:	68 12 00 00 00       	push   $0x12
  40279b:	e9 c0 fe ff ff       	jmp    402660 <.plt>

00000000004027a0 <pthread_join@plt>:
  4027a0:	ff 25 0a 89 23 00    	jmp    *0x23890a(%rip)        # 63b0b0 <pthread_join@GLIBC_2.2.5>
  4027a6:	68 13 00 00 00       	push   $0x13
  4027ab:	e9 b0 fe ff ff       	jmp    402660 <.plt>

00000000004027b0 <getuid@plt>:
  4027b0:	ff 25 02 89 23 00    	jmp    *0x238902(%rip)        # 63b0b8 <getuid@GLIBC_2.2.5>
  4027b6:	68 14 00 00 00       	push   $0x14
  4027bb:	e9 a0 fe ff ff       	jmp    402660 <.plt>

00000000004027c0 <snd_pcm_hw_params_set_format@plt>:
  4027c0:	ff 25 fa 88 23 00    	jmp    *0x2388fa(%rip)        # 63b0c0 <snd_pcm_hw_params_set_format@ALSA_0.9>
  4027c6:	68 15 00 00 00       	push   $0x15
  4027cb:	e9 90 fe ff ff       	jmp    402660 <.plt>

00000000004027d0 <strncpy@plt>:
  4027d0:	ff 25 f2 88 23 00    	jmp    *0x2388f2(%rip)        # 63b0c8 <strncpy@GLIBC_2.2.5>
  4027d6:	68 16 00 00 00       	push   $0x16
  4027db:	e9 80 fe ff ff       	jmp    402660 <.plt>

00000000004027e0 <memset@plt>:
  4027e0:	ff 25 ea 88 23 00    	jmp    *0x2388ea(%rip)        # 63b0d0 <memset@GLIBC_2.2.5>
  4027e6:	68 17 00 00 00       	push   $0x17
  4027eb:	e9 70 fe ff ff       	jmp    402660 <.plt>

00000000004027f0 <pthread_create@plt>:
  4027f0:	ff 25 e2 88 23 00    	jmp    *0x2388e2(%rip)        # 63b0d8 <pthread_create@GLIBC_2.2.5>
  4027f6:	68 18 00 00 00       	push   $0x18
  4027fb:	e9 60 fe ff ff       	jmp    402660 <.plt>

0000000000402800 <snd_ctl_open@plt>:
  402800:	ff 25 da 88 23 00    	jmp    *0x2388da(%rip)        # 63b0e0 <snd_ctl_open@ALSA_0.9>
  402806:	68 19 00 00 00       	push   $0x19
  40280b:	e9 50 fe ff ff       	jmp    402660 <.plt>

0000000000402810 <shmget@plt>:
  402810:	ff 25 d2 88 23 00    	jmp    *0x2388d2(%rip)        # 63b0e8 <shmget@GLIBC_2.2.5>
  402816:	68 1a 00 00 00       	push   $0x1a
  40281b:	e9 40 fe ff ff       	jmp    402660 <.plt>

0000000000402820 <XineramaQueryScreens@plt>:
  402820:	ff 25 ca 88 23 00    	jmp    *0x2388ca(%rip)        # 63b0f0 <XineramaQueryScreens>
  402826:	68 1b 00 00 00       	push   $0x1b
  40282b:	e9 30 fe ff ff       	jmp    402660 <.plt>

0000000000402830 <rename@plt>:
  402830:	ff 25 c2 88 23 00    	jmp    *0x2388c2(%rip)        # 63b0f8 <rename@GLIBC_2.2.5>
  402836:	68 1c 00 00 00       	push   $0x1c
  40283b:	e9 20 fe ff ff       	jmp    402660 <.plt>

0000000000402840 <snd_pcm_hw_params_set_buffer_size@plt>:
  402840:	ff 25 ba 88 23 00    	jmp    *0x2388ba(%rip)        # 63b100 <snd_pcm_hw_params_set_buffer_size@ALSA_0.9>
  402846:	68 1d 00 00 00       	push   $0x1d
  40284b:	e9 10 fe ff ff       	jmp    402660 <.plt>

0000000000402850 <snd_pcm_open@plt>:
  402850:	ff 25 b2 88 23 00    	jmp    *0x2388b2(%rip)        # 63b108 <snd_pcm_open@ALSA_0.9>
  402856:	68 1e 00 00 00       	push   $0x1e
  40285b:	e9 00 fe ff ff       	jmp    402660 <.plt>

0000000000402860 <sscanf@plt>:
  402860:	ff 25 aa 88 23 00    	jmp    *0x2388aa(%rip)        # 63b110 <sscanf@GLIBC_2.2.5>
  402866:	68 1f 00 00 00       	push   $0x1f
  40286b:	e9 f0 fd ff ff       	jmp    402660 <.plt>

0000000000402870 <open@plt>:
  402870:	ff 25 a2 88 23 00    	jmp    *0x2388a2(%rip)        # 63b118 <open@GLIBC_2.2.5>
  402876:	68 20 00 00 00       	push   $0x20
  40287b:	e9 e0 fd ff ff       	jmp    402660 <.plt>

0000000000402880 <localtime@plt>:
  402880:	ff 25 9a 88 23 00    	jmp    *0x23889a(%rip)        # 63b120 <localtime@GLIBC_2.2.5>
  402886:	68 21 00 00 00       	push   $0x21
  40288b:	e9 d0 fd ff ff       	jmp    402660 <.plt>

0000000000402890 <pthread_mutex_unlock@plt>:
  402890:	ff 25 92 88 23 00    	jmp    *0x238892(%rip)        # 63b128 <pthread_mutex_unlock@GLIBC_2.2.5>
  402896:	68 22 00 00 00       	push   $0x22
  40289b:	e9 c0 fd ff ff       	jmp    402660 <.plt>

00000000004028a0 <snd_strerror@plt>:
  4028a0:	ff 25 8a 88 23 00    	jmp    *0x23888a(%rip)        # 63b130 <snd_strerror@ALSA_0.9>
  4028a6:	68 23 00 00 00       	push   $0x23
  4028ab:	e9 b0 fd ff ff       	jmp    402660 <.plt>

00000000004028b0 <sqrt@plt>:
  4028b0:	ff 25 82 88 23 00    	jmp    *0x238882(%rip)        # 63b138 <sqrt@GLIBC_2.2.5>
  4028b6:	68 24 00 00 00       	push   $0x24
  4028bb:	e9 a0 fd ff ff       	jmp    402660 <.plt>

00000000004028c0 <waitpid@plt>:
  4028c0:	ff 25 7a 88 23 00    	jmp    *0x23887a(%rip)        # 63b140 <waitpid@GLIBC_2.2.5>
  4028c6:	68 25 00 00 00       	push   $0x25
  4028cb:	e9 90 fd ff ff       	jmp    402660 <.plt>

00000000004028d0 <shmctl@plt>:
  4028d0:	ff 25 72 88 23 00    	jmp    *0x238872(%rip)        # 63b148 <shmctl@GLIBC_2.2.5>
  4028d6:	68 26 00 00 00       	push   $0x26
  4028db:	e9 80 fd ff ff       	jmp    402660 <.plt>

00000000004028e0 <snd_pcm_stream_name@plt>:
  4028e0:	ff 25 6a 88 23 00    	jmp    *0x23886a(%rip)        # 63b150 <snd_pcm_stream_name@ALSA_0.9>
  4028e6:	68 27 00 00 00       	push   $0x27
  4028eb:	e9 70 fd ff ff       	jmp    402660 <.plt>

00000000004028f0 <snd_pcm_writei@plt>:
  4028f0:	ff 25 62 88 23 00    	jmp    *0x238862(%rip)        # 63b158 <snd_pcm_writei@ALSA_0.9>
  4028f6:	68 28 00 00 00       	push   $0x28
  4028fb:	e9 60 fd ff ff       	jmp    402660 <.plt>

0000000000402900 <system@plt>:
  402900:	ff 25 5a 88 23 00    	jmp    *0x23885a(%rip)        # 63b160 <system@GLIBC_2.2.5>
  402906:	68 29 00 00 00       	push   $0x29
  40290b:	e9 50 fd ff ff       	jmp    402660 <.plt>

0000000000402910 <snd_pcm_hw_params@plt>:
  402910:	ff 25 52 88 23 00    	jmp    *0x238852(%rip)        # 63b168 <snd_pcm_hw_params@ALSA_0.9>
  402916:	68 2a 00 00 00       	push   $0x2a
  40291b:	e9 40 fd ff ff       	jmp    402660 <.plt>

0000000000402920 <snd_pcm_hw_params_set_periods@plt>:
  402920:	ff 25 4a 88 23 00    	jmp    *0x23884a(%rip)        # 63b170 <snd_pcm_hw_params_set_periods@ALSA_0.9>
  402926:	68 2b 00 00 00       	push   $0x2b
  40292b:	e9 30 fd ff ff       	jmp    402660 <.plt>

0000000000402930 <XPending@plt>:
  402930:	ff 25 42 88 23 00    	jmp    *0x238842(%rip)        # 63b178 <XPending>
  402936:	68 2c 00 00 00       	push   $0x2c
  40293b:	e9 20 fd ff ff       	jmp    402660 <.plt>

0000000000402940 <snd_pcm_prepare@plt>:
  402940:	ff 25 3a 88 23 00    	jmp    *0x23883a(%rip)        # 63b180 <snd_pcm_prepare@ALSA_0.9>
  402946:	68 2d 00 00 00       	push   $0x2d
  40294b:	e9 10 fd ff ff       	jmp    402660 <.plt>

0000000000402950 <pthread_self@plt>:
  402950:	ff 25 32 88 23 00    	jmp    *0x238832(%rip)        # 63b188 <pthread_self@GLIBC_2.2.5>
  402956:	68 2e 00 00 00       	push   $0x2e
  40295b:	e9 00 fd ff ff       	jmp    402660 <.plt>

0000000000402960 <XineramaIsActive@plt>:
  402960:	ff 25 2a 88 23 00    	jmp    *0x23882a(%rip)        # 63b190 <XineramaIsActive>
  402966:	68 2f 00 00 00       	push   $0x2f
  40296b:	e9 f0 fc ff ff       	jmp    402660 <.plt>

0000000000402970 <snd_ctl_card_info_malloc@plt>:
  402970:	ff 25 22 88 23 00    	jmp    *0x238822(%rip)        # 63b198 <snd_ctl_card_info_malloc@ALSA_0.9>
  402976:	68 30 00 00 00       	push   $0x30
  40297b:	e9 e0 fc ff ff       	jmp    402660 <.plt>

0000000000402980 <time@plt>:
  402980:	ff 25 1a 88 23 00    	jmp    *0x23881a(%rip)        # 63b1a0 <time@GLIBC_2.2.5>
  402986:	68 31 00 00 00       	push   $0x31
  40298b:	e9 d0 fc ff ff       	jmp    402660 <.plt>

0000000000402990 <strcpy@plt>:
  402990:	ff 25 12 88 23 00    	jmp    *0x238812(%rip)        # 63b1a8 <strcpy@GLIBC_2.2.5>
  402996:	68 32 00 00 00       	push   $0x32
  40299b:	e9 c0 fc ff ff       	jmp    402660 <.plt>

00000000004029a0 <_ZdlPv@plt>:
  4029a0:	ff 25 0a 88 23 00    	jmp    *0x23880a(%rip)        # 63b1b0 <_ZdlPv@GLIBCXX_3.4>
  4029a6:	68 33 00 00 00       	push   $0x33
  4029ab:	e9 b0 fc ff ff       	jmp    402660 <.plt>

00000000004029b0 <select@plt>:
  4029b0:	ff 25 02 88 23 00    	jmp    *0x238802(%rip)        # 63b1b8 <select@GLIBC_2.2.5>
  4029b6:	68 34 00 00 00       	push   $0x34
  4029bb:	e9 a0 fc ff ff       	jmp    402660 <.plt>

00000000004029c0 <acos@plt>:
  4029c0:	ff 25 fa 87 23 00    	jmp    *0x2387fa(%rip)        # 63b1c0 <acos@GLIBC_2.2.5>
  4029c6:	68 35 00 00 00       	push   $0x35
  4029cb:	e9 90 fc ff ff       	jmp    402660 <.plt>

00000000004029d0 <snd_pcm_hw_params_set_rate_near@plt>:
  4029d0:	ff 25 f2 87 23 00    	jmp    *0x2387f2(%rip)        # 63b1c8 <snd_pcm_hw_params_set_rate_near@ALSA_0.9.0rc4>
  4029d6:	68 36 00 00 00       	push   $0x36
  4029db:	e9 80 fc ff ff       	jmp    402660 <.plt>

00000000004029e0 <fclose@plt>:
  4029e0:	ff 25 ea 87 23 00    	jmp    *0x2387ea(%rip)        # 63b1d0 <fclose@GLIBC_2.2.5>
  4029e6:	68 37 00 00 00       	push   $0x37
  4029eb:	e9 70 fc ff ff       	jmp    402660 <.plt>

00000000004029f0 <_Znwm@plt>:
  4029f0:	ff 25 e2 87 23 00    	jmp    *0x2387e2(%rip)        # 63b1d8 <_Znwm@GLIBCXX_3.4>
  4029f6:	68 38 00 00 00       	push   $0x38
  4029fb:	e9 60 fc ff ff       	jmp    402660 <.plt>

0000000000402a00 <vprintf@plt>:
  402a00:	ff 25 da 87 23 00    	jmp    *0x2387da(%rip)        # 63b1e0 <vprintf@GLIBC_2.2.5>
  402a06:	68 39 00 00 00       	push   $0x39
  402a0b:	e9 50 fc ff ff       	jmp    402660 <.plt>

0000000000402a10 <fseek@plt>:
  402a10:	ff 25 d2 87 23 00    	jmp    *0x2387d2(%rip)        # 63b1e8 <fseek@GLIBC_2.2.5>
  402a16:	68 3a 00 00 00       	push   $0x3a
  402a1b:	e9 40 fc ff ff       	jmp    402660 <.plt>

0000000000402a20 <__stack_chk_fail@plt>:
  402a20:	ff 25 ca 87 23 00    	jmp    *0x2387ca(%rip)        # 63b1f0 <__stack_chk_fail@GLIBC_2.4>
  402a26:	68 3b 00 00 00       	push   $0x3b
  402a2b:	e9 30 fc ff ff       	jmp    402660 <.plt>

0000000000402a30 <snd_pcm_hw_params_sizeof@plt>:
  402a30:	ff 25 c2 87 23 00    	jmp    *0x2387c2(%rip)        # 63b1f8 <snd_pcm_hw_params_sizeof@ALSA_0.9>
  402a36:	68 3c 00 00 00       	push   $0x3c
  402a3b:	e9 20 fc ff ff       	jmp    402660 <.plt>

0000000000402a40 <pthread_mutex_destroy@plt>:
  402a40:	ff 25 ba 87 23 00    	jmp    *0x2387ba(%rip)        # 63b200 <pthread_mutex_destroy@GLIBC_2.2.5>
  402a46:	68 3d 00 00 00       	push   $0x3d
  402a4b:	e9 10 fc ff ff       	jmp    402660 <.plt>

0000000000402a50 <fopen@plt>:
  402a50:	ff 25 b2 87 23 00    	jmp    *0x2387b2(%rip)        # 63b208 <fopen@GLIBC_2.2.5>
  402a56:	68 3e 00 00 00       	push   $0x3e
  402a5b:	e9 00 fc ff ff       	jmp    402660 <.plt>

0000000000402a60 <signal@plt>:
  402a60:	ff 25 aa 87 23 00    	jmp    *0x2387aa(%rip)        # 63b210 <signal@GLIBC_2.2.5>
  402a66:	68 3f 00 00 00       	push   $0x3f
  402a6b:	e9 f0 fb ff ff       	jmp    402660 <.plt>

0000000000402a70 <free@plt>:
  402a70:	ff 25 a2 87 23 00    	jmp    *0x2387a2(%rip)        # 63b218 <free@GLIBC_2.2.5>
  402a76:	68 40 00 00 00       	push   $0x40
  402a7b:	e9 e0 fb ff ff       	jmp    402660 <.plt>

0000000000402a80 <daemon@plt>:
  402a80:	ff 25 9a 87 23 00    	jmp    *0x23879a(%rip)        # 63b220 <daemon@GLIBC_2.2.5>
  402a86:	68 41 00 00 00       	push   $0x41
  402a8b:	e9 d0 fb ff ff       	jmp    402660 <.plt>

0000000000402a90 <XRRUpdateConfiguration@plt>:
  402a90:	ff 25 92 87 23 00    	jmp    *0x238792(%rip)        # 63b228 <XRRUpdateConfiguration>
  402a96:	68 42 00 00 00       	push   $0x42
  402a9b:	e9 c0 fb ff ff       	jmp    402660 <.plt>

0000000000402aa0 <pthread_cond_init@plt>:
  402aa0:	ff 25 8a 87 23 00    	jmp    *0x23878a(%rip)        # 63b230 <pthread_cond_init@GLIBC_2.3.2>
  402aa6:	68 43 00 00 00       	push   $0x43
  402aab:	e9 b0 fb ff ff       	jmp    402660 <.plt>

0000000000402ab0 <exit@plt>:
  402ab0:	ff 25 82 87 23 00    	jmp    *0x238782(%rip)        # 63b238 <exit@GLIBC_2.2.5>
  402ab6:	68 44 00 00 00       	push   $0x44
  402abb:	e9 a0 fb ff ff       	jmp    402660 <.plt>

0000000000402ac0 <atof@plt>:
  402ac0:	ff 25 7a 87 23 00    	jmp    *0x23877a(%rip)        # 63b240 <atof@GLIBC_2.2.5>
  402ac6:	68 45 00 00 00       	push   $0x45
  402acb:	e9 90 fb ff ff       	jmp    402660 <.plt>

0000000000402ad0 <fputc@plt>:
  402ad0:	ff 25 72 87 23 00    	jmp    *0x238772(%rip)        # 63b248 <fputc@GLIBC_2.2.5>
  402ad6:	68 46 00 00 00       	push   $0x46
  402adb:	e9 80 fb ff ff       	jmp    402660 <.plt>

0000000000402ae0 <sigemptyset@plt>:
  402ae0:	ff 25 6a 87 23 00    	jmp    *0x23876a(%rip)        # 63b250 <sigemptyset@GLIBC_2.2.5>
  402ae6:	68 47 00 00 00       	push   $0x47
  402aeb:	e9 70 fb ff ff       	jmp    402660 <.plt>

0000000000402af0 <sigaction@plt>:
  402af0:	ff 25 62 87 23 00    	jmp    *0x238762(%rip)        # 63b258 <sigaction@GLIBC_2.2.5>
  402af6:	68 48 00 00 00       	push   $0x48
  402afb:	e9 60 fb ff ff       	jmp    402660 <.plt>

0000000000402b00 <snd_pcm_close@plt>:
  402b00:	ff 25 5a 87 23 00    	jmp    *0x23875a(%rip)        # 63b260 <snd_pcm_close@ALSA_0.9>
  402b06:	68 49 00 00 00       	push   $0x49
  402b0b:	e9 50 fb ff ff       	jmp    402660 <.plt>

0000000000402b10 <malloc@plt>:
  402b10:	ff 25 52 87 23 00    	jmp    *0x238752(%rip)        # 63b268 <malloc@GLIBC_2.2.5>
  402b16:	68 4a 00 00 00       	push   $0x4a
  402b1b:	e9 40 fb ff ff       	jmp    402660 <.plt>

0000000000402b20 <vfprintf@plt>:
  402b20:	ff 25 4a 87 23 00    	jmp    *0x23874a(%rip)        # 63b270 <vfprintf@GLIBC_2.2.5>
  402b26:	68 4b 00 00 00       	push   $0x4b
  402b2b:	e9 30 fb ff ff       	jmp    402660 <.plt>

0000000000402b30 <snd_pcm_hw_params_set_channels@plt>:
  402b30:	ff 25 42 87 23 00    	jmp    *0x238742(%rip)        # 63b278 <snd_pcm_hw_params_set_channels@ALSA_0.9>
  402b36:	68 4c 00 00 00       	push   $0x4c
  402b3b:	e9 20 fb ff ff       	jmp    402660 <.plt>

0000000000402b40 <XOpenDisplay@plt>:
  402b40:	ff 25 3a 87 23 00    	jmp    *0x23873a(%rip)        # 63b280 <XOpenDisplay>
  402b46:	68 4d 00 00 00       	push   $0x4d
  402b4b:	e9 10 fb ff ff       	jmp    402660 <.plt>

0000000000402b50 <shmat@plt>:
  402b50:	ff 25 32 87 23 00    	jmp    *0x238732(%rip)        # 63b288 <shmat@GLIBC_2.2.5>
  402b56:	68 4e 00 00 00       	push   $0x4e
  402b5b:	e9 00 fb ff ff       	jmp    402660 <.plt>

0000000000402b60 <putchar@plt>:
  402b60:	ff 25 2a 87 23 00    	jmp    *0x23872a(%rip)        # 63b290 <putchar@GLIBC_2.2.5>
  402b66:	68 4f 00 00 00       	push   $0x4f
  402b6b:	e9 f0 fa ff ff       	jmp    402660 <.plt>

0000000000402b70 <strcmp@plt>:
  402b70:	ff 25 22 87 23 00    	jmp    *0x238722(%rip)        # 63b298 <strcmp@GLIBC_2.2.5>
  402b76:	68 50 00 00 00       	push   $0x50
  402b7b:	e9 e0 fa ff ff       	jmp    402660 <.plt>

0000000000402b80 <strtol@plt>:
  402b80:	ff 25 1a 87 23 00    	jmp    *0x23871a(%rip)        # 63b2a0 <strtol@GLIBC_2.2.5>
  402b86:	68 51 00 00 00       	push   $0x51
  402b8b:	e9 d0 fa ff ff       	jmp    402660 <.plt>

0000000000402b90 <ioctl@plt>:
  402b90:	ff 25 12 87 23 00    	jmp    *0x238712(%rip)        # 63b2a8 <ioctl@GLIBC_2.2.5>
  402b96:	68 52 00 00 00       	push   $0x52
  402b9b:	e9 c0 fa ff ff       	jmp    402660 <.plt>

0000000000402ba0 <usleep@plt>:
  402ba0:	ff 25 0a 87 23 00    	jmp    *0x23870a(%rip)        # 63b2b0 <usleep@GLIBC_2.2.5>
  402ba6:	68 53 00 00 00       	push   $0x53
  402bab:	e9 b0 fa ff ff       	jmp    402660 <.plt>

0000000000402bb0 <kill@plt>:
  402bb0:	ff 25 02 87 23 00    	jmp    *0x238702(%rip)        # 63b2b8 <kill@GLIBC_2.2.5>
  402bb6:	68 54 00 00 00       	push   $0x54
  402bbb:	e9 a0 fa ff ff       	jmp    402660 <.plt>

0000000000402bc0 <XNextEvent@plt>:
  402bc0:	ff 25 fa 86 23 00    	jmp    *0x2386fa(%rip)        # 63b2c0 <XNextEvent>
  402bc6:	68 55 00 00 00       	push   $0x55
  402bcb:	e9 90 fa ff ff       	jmp    402660 <.plt>

0000000000402bd0 <fprintf@plt>:
  402bd0:	ff 25 f2 86 23 00    	jmp    *0x2386f2(%rip)        # 63b2c8 <fprintf@GLIBC_2.2.5>
  402bd6:	68 56 00 00 00       	push   $0x56
  402bdb:	e9 80 fa ff ff       	jmp    402660 <.plt>

0000000000402be0 <read@plt>:
  402be0:	ff 25 ea 86 23 00    	jmp    *0x2386ea(%rip)        # 63b2d0 <read@GLIBC_2.2.5>
  402be6:	68 57 00 00 00       	push   $0x57
  402beb:	e9 70 fa ff ff       	jmp    402660 <.plt>

0000000000402bf0 <sched_yield@plt>:
  402bf0:	ff 25 e2 86 23 00    	jmp    *0x2386e2(%rip)        # 63b2d8 <sched_yield@GLIBC_2.2.5>
  402bf6:	68 58 00 00 00       	push   $0x58
  402bfb:	e9 60 fa ff ff       	jmp    402660 <.plt>

0000000000402c00 <getpid@plt>:
  402c00:	ff 25 da 86 23 00    	jmp    *0x2386da(%rip)        # 63b2e0 <getpid@GLIBC_2.2.5>
  402c06:	68 59 00 00 00       	push   $0x59
  402c0b:	e9 50 fa ff ff       	jmp    402660 <.plt>

0000000000402c10 <pthread_mutex_lock@plt>:
  402c10:	ff 25 d2 86 23 00    	jmp    *0x2386d2(%rip)        # 63b2e8 <pthread_mutex_lock@GLIBC_2.2.5>
  402c16:	68 5a 00 00 00       	push   $0x5a
  402c1b:	e9 40 fa ff ff       	jmp    402660 <.plt>

0000000000402c20 <setitimer@plt>:
  402c20:	ff 25 ca 86 23 00    	jmp    *0x2386ca(%rip)        # 63b2f0 <setitimer@GLIBC_2.2.5>
  402c26:	68 5b 00 00 00       	push   $0x5b
  402c2b:	e9 30 fa ff ff       	jmp    402660 <.plt>

0000000000402c30 <pthread_mutex_init@plt>:
  402c30:	ff 25 c2 86 23 00    	jmp    *0x2386c2(%rip)        # 63b2f8 <pthread_mutex_init@GLIBC_2.2.5>
  402c36:	68 5c 00 00 00       	push   $0x5c
  402c3b:	e9 20 fa ff ff       	jmp    402660 <.plt>

0000000000402c40 <fread@plt>:
  402c40:	ff 25 ba 86 23 00    	jmp    *0x2386ba(%rip)        # 63b300 <fread@GLIBC_2.2.5>
  402c46:	68 5d 00 00 00       	push   $0x5d
  402c4b:	e9 10 fa ff ff       	jmp    402660 <.plt>

0000000000402c50 <memcpy@plt>:
  402c50:	ff 25 b2 86 23 00    	jmp    *0x2386b2(%rip)        # 63b308 <memcpy@GLIBC_2.2.5>
  402c56:	68 5e 00 00 00       	push   $0x5e
  402c5b:	e9 00 fa ff ff       	jmp    402660 <.plt>

0000000000402c60 <opendir@plt>:
  402c60:	ff 25 aa 86 23 00    	jmp    *0x2386aa(%rip)        # 63b310 <opendir@GLIBC_2.2.5>
  402c66:	68 5f 00 00 00       	push   $0x5f
  402c6b:	e9 f0 f9 ff ff       	jmp    402660 <.plt>

0000000000402c70 <pthread_cond_timedwait@plt>:
  402c70:	ff 25 a2 86 23 00    	jmp    *0x2386a2(%rip)        # 63b318 <pthread_cond_timedwait@GLIBC_2.3.2>
  402c76:	68 60 00 00 00       	push   $0x60
  402c7b:	e9 e0 f9 ff ff       	jmp    402660 <.plt>

0000000000402c80 <snd_card_next@plt>:
  402c80:	ff 25 9a 86 23 00    	jmp    *0x23869a(%rip)        # 63b320 <snd_card_next@ALSA_0.9>
  402c86:	68 61 00 00 00       	push   $0x61
  402c8b:	e9 d0 f9 ff ff       	jmp    402660 <.plt>

0000000000402c90 <readdir@plt>:
  402c90:	ff 25 92 86 23 00    	jmp    *0x238692(%rip)        # 63b328 <readdir@GLIBC_2.2.5>
  402c96:	68 62 00 00 00       	push   $0x62
  402c9b:	e9 c0 f9 ff ff       	jmp    402660 <.plt>

0000000000402ca0 <puts@plt>:
  402ca0:	ff 25 8a 86 23 00    	jmp    *0x23868a(%rip)        # 63b330 <puts@GLIBC_2.2.5>
  402ca6:	68 63 00 00 00       	push   $0x63
  402cab:	e9 b0 f9 ff ff       	jmp    402660 <.plt>

0000000000402cb0 <feof@plt>:
  402cb0:	ff 25 82 86 23 00    	jmp    *0x238682(%rip)        # 63b338 <feof@GLIBC_2.2.5>
  402cb6:	68 64 00 00 00       	push   $0x64
  402cbb:	e9 a0 f9 ff ff       	jmp    402660 <.plt>

0000000000402cc0 <atoi@plt>:
  402cc0:	ff 25 7a 86 23 00    	jmp    *0x23867a(%rip)        # 63b340 <atoi@GLIBC_2.2.5>
  402cc6:	68 65 00 00 00       	push   $0x65
  402ccb:	e9 90 f9 ff ff       	jmp    402660 <.plt>

0000000000402cd0 <strtok@plt>:
  402cd0:	ff 25 72 86 23 00    	jmp    *0x238672(%rip)        # 63b348 <strtok@GLIBC_2.2.5>
  402cd6:	68 66 00 00 00       	push   $0x66
  402cdb:	e9 80 f9 ff ff       	jmp    402660 <.plt>

0000000000402ce0 <fgetc@plt>:
  402ce0:	ff 25 6a 86 23 00    	jmp    *0x23866a(%rip)        # 63b350 <fgetc@GLIBC_2.2.5>
  402ce6:	68 67 00 00 00       	push   $0x67
  402ceb:	e9 70 f9 ff ff       	jmp    402660 <.plt>

0000000000402cf0 <fgets@plt>:
  402cf0:	ff 25 62 86 23 00    	jmp    *0x238662(%rip)        # 63b358 <fgets@GLIBC_2.2.5>
  402cf6:	68 68 00 00 00       	push   $0x68
  402cfb:	e9 60 f9 ff ff       	jmp    402660 <.plt>

0000000000402d00 <snd_ctl_close@plt>:
  402d00:	ff 25 5a 86 23 00    	jmp    *0x23865a(%rip)        # 63b360 <snd_ctl_close@ALSA_0.9>
  402d06:	68 69 00 00 00       	push   $0x69
  402d0b:	e9 50 f9 ff ff       	jmp    402660 <.plt>

0000000000402d10 <snprintf@plt>:
  402d10:	ff 25 52 86 23 00    	jmp    *0x238652(%rip)        # 63b368 <snprintf@GLIBC_2.2.5>
  402d16:	68 6a 00 00 00       	push   $0x6a
  402d1b:	e9 40 f9 ff ff       	jmp    402660 <.plt>

0000000000402d20 <closedir@plt>:
  402d20:	ff 25 4a 86 23 00    	jmp    *0x23864a(%rip)        # 63b370 <closedir@GLIBC_2.2.5>
  402d26:	68 6b 00 00 00       	push   $0x6b
  402d2b:	e9 30 f9 ff ff       	jmp    402660 <.plt>

0000000000402d30 <gettimeofday@plt>:
  402d30:	ff 25 42 86 23 00    	jmp    *0x238642(%rip)        # 63b378 <gettimeofday@GLIBC_2.2.5>
  402d36:	68 6c 00 00 00       	push   $0x6c
  402d3b:	e9 20 f9 ff ff       	jmp    402660 <.plt>

0000000000402d40 <__gxx_personality_v0@plt>:
  402d40:	ff 25 3a 86 23 00    	jmp    *0x23863a(%rip)        # 63b380 <__gxx_personality_v0@CXXABI_1.3>
  402d46:	68 6d 00 00 00       	push   $0x6d
  402d4b:	e9 10 f9 ff ff       	jmp    402660 <.plt>

0000000000402d50 <XRRSelectInput@plt>:
  402d50:	ff 25 32 86 23 00    	jmp    *0x238632(%rip)        # 63b388 <XRRSelectInput>
  402d56:	68 6e 00 00 00       	push   $0x6e
  402d5b:	e9 00 f9 ff ff       	jmp    402660 <.plt>

0000000000402d60 <access@plt>:
  402d60:	ff 25 2a 86 23 00    	jmp    *0x23862a(%rip)        # 63b390 <access@GLIBC_2.2.5>
  402d66:	68 6f 00 00 00       	push   $0x6f
  402d6b:	e9 f0 f8 ff ff       	jmp    402660 <.plt>

0000000000402d70 <XRRFreeScreenConfigInfo@plt>:
  402d70:	ff 25 22 86 23 00    	jmp    *0x238622(%rip)        # 63b398 <XRRFreeScreenConfigInfo>
  402d76:	68 70 00 00 00       	push   $0x70
  402d7b:	e9 e0 f8 ff ff       	jmp    402660 <.plt>

0000000000402d80 <XRRGetScreenInfo@plt>:
  402d80:	ff 25 1a 86 23 00    	jmp    *0x23861a(%rip)        # 63b3a0 <XRRGetScreenInfo>
  402d86:	68 71 00 00 00       	push   $0x71
  402d8b:	e9 d0 f8 ff ff       	jmp    402660 <.plt>

0000000000402d90 <floor@plt>:
  402d90:	ff 25 12 86 23 00    	jmp    *0x238612(%rip)        # 63b3a8 <floor@GLIBC_2.2.5>
  402d96:	68 72 00 00 00       	push   $0x72
  402d9b:	e9 c0 f8 ff ff       	jmp    402660 <.plt>

0000000000402da0 <_Unwind_Resume@plt>:
  402da0:	ff 25 0a 86 23 00    	jmp    *0x23860a(%rip)        # 63b3b0 <_Unwind_Resume@GCC_3.0>
  402da6:	68 73 00 00 00       	push   $0x73
  402dab:	e9 b0 f8 ff ff       	jmp    402660 <.plt>

0000000000402db0 <pthread_exit@plt>:
  402db0:	ff 25 02 86 23 00    	jmp    *0x238602(%rip)        # 63b3b8 <pthread_exit@GLIBC_2.2.5>
  402db6:	68 74 00 00 00       	push   $0x74
  402dbb:	e9 a0 f8 ff ff       	jmp    402660 <.plt>

0000000000402dc0 <strcat@plt>:
  402dc0:	ff 25 fa 85 23 00    	jmp    *0x2385fa(%rip)        # 63b3c0 <strcat@GLIBC_2.2.5>
  402dc6:	68 75 00 00 00       	push   $0x75
  402dcb:	e9 90 f8 ff ff       	jmp    402660 <.plt>

0000000000402dd0 <remove@plt>:
  402dd0:	ff 25 f2 85 23 00    	jmp    *0x2385f2(%rip)        # 63b3c8 <remove@GLIBC_2.2.5>
  402dd6:	68 76 00 00 00       	push   $0x76
  402ddb:	e9 80 f8 ff ff       	jmp    402660 <.plt>

0000000000402de0 <snd_pcm_hw_params_any@plt>:
  402de0:	ff 25 ea 85 23 00    	jmp    *0x2385ea(%rip)        # 63b3d0 <snd_pcm_hw_params_any@ALSA_0.9>
  402de6:	68 77 00 00 00       	push   $0x77
  402deb:	e9 70 f8 ff ff       	jmp    402660 <.plt>

0000000000402df0 <snd_ctl_card_info_free@plt>:
  402df0:	ff 25 e2 85 23 00    	jmp    *0x2385e2(%rip)        # 63b3d8 <snd_ctl_card_info_free@ALSA_0.9>
  402df6:	68 78 00 00 00       	push   $0x78
  402dfb:	e9 60 f8 ff ff       	jmp    402660 <.plt>

0000000000402e00 <shmdt@plt>:
  402e00:	ff 25 da 85 23 00    	jmp    *0x2385da(%rip)        # 63b3e0 <shmdt@GLIBC_2.2.5>
  402e06:	68 79 00 00 00       	push   $0x79
  402e0b:	e9 50 f8 ff ff       	jmp    402660 <.plt>

0000000000402e10 <__libc_start_main@plt>:
  402e10:	ff 25 d2 85 23 00    	jmp    *0x2385d2(%rip)        # 63b3e8 <__libc_start_main@GLIBC_2.2.5>
  402e16:	68 7a 00 00 00       	push   $0x7a
  402e1b:	e9 40 f8 ff ff       	jmp    402660 <.plt>

0000000000402e20 <__gmon_start__@plt>:
  402e20:	ff 25 ca 85 23 00    	jmp    *0x2385ca(%rip)        # 63b3f0 <__gmon_start__>
  402e26:	68 7b 00 00 00       	push   $0x7b
  402e2b:	e9 30 f8 ff ff       	jmp    402660 <.plt>

0000000000402e30 <XSync@plt>:
  402e30:	ff 25 c2 85 23 00    	jmp    *0x2385c2(%rip)        # 63b3f8 <XSync>
  402e36:	68 7c 00 00 00       	push   $0x7c
  402e3b:	e9 20 f8 ff ff       	jmp    402660 <.plt>

0000000000402e40 <fscanf@plt>:
  402e40:	ff 25 ba 85 23 00    	jmp    *0x2385ba(%rip)        # 63b400 <fscanf@GLIBC_2.2.5>
  402e46:	68 7d 00 00 00       	push   $0x7d
  402e4b:	e9 10 f8 ff ff       	jmp    402660 <.plt>

0000000000402e50 <strcasestr@plt>:
  402e50:	ff 25 b2 85 23 00    	jmp    *0x2385b2(%rip)        # 63b408 <strcasestr@GLIBC_2.2.5>
  402e56:	68 7e 00 00 00       	push   $0x7e
  402e5b:	e9 00 f8 ff ff       	jmp    402660 <.plt>

0000000000402e60 <pthread_cond_destroy@plt>:
  402e60:	ff 25 aa 85 23 00    	jmp    *0x2385aa(%rip)        # 63b410 <pthread_cond_destroy@GLIBC_2.3.2>
  402e66:	68 7f 00 00 00       	push   $0x7f
  402e6b:	e9 f0 f7 ff ff       	jmp    402660 <.plt>

0000000000402e70 <fwrite@plt>:
  402e70:	ff 25 a2 85 23 00    	jmp    *0x2385a2(%rip)        # 63b418 <fwrite@GLIBC_2.2.5>
  402e76:	68 80 00 00 00       	push   $0x80
  402e7b:	e9 e0 f7 ff ff       	jmp    402660 <.plt>

0000000000402e80 <close@plt>:
  402e80:	ff 25 9a 85 23 00    	jmp    *0x23859a(%rip)        # 63b420 <close@GLIBC_2.2.5>
  402e86:	68 81 00 00 00       	push   $0x81
  402e8b:	e9 d0 f7 ff ff       	jmp    402660 <.plt>

Disassembly of section .text:

0000000000402e90 <_start>:
  402e90:	31 ed                	xor    %ebp,%ebp
  402e92:	49 89 d1             	mov    %rdx,%r9
  402e95:	5e                   	pop    %rsi
  402e96:	48 89 e2             	mov    %rsp,%rdx
  402e99:	48 83 e4 f0          	and    $0xfffffffffffffff0,%rsp
  402e9d:	50                   	push   %rax
  402e9e:	54                   	push   %rsp
  402e9f:	49 c7 c0 b0 f5 42 00 	mov    $0x42f5b0,%r8
  402ea6:	48 c7 c1 40 f5 42 00 	mov    $0x42f540,%rcx
  402ead:	48 c7 c7 65 57 40 00 	mov    $0x405765,%rdi
  402eb4:	e8 57 ff ff ff       	call   402e10 <__libc_start_main@plt>
  402eb9:	f4                   	hlt    
  402eba:	66 0f 1f 44 00 00    	nopw   0x0(%rax,%rax,1)

0000000000402ec0 <deregister_tm_clones>:
  402ec0:	b8 47 b5 63 00       	mov    $0x63b547,%eax
  402ec5:	55                   	push   %rbp
  402ec6:	48 2d 40 b5 63 00    	sub    $0x63b540,%rax
  402ecc:	48 83 f8 0e          	cmp    $0xe,%rax
  402ed0:	48 89 e5             	mov    %rsp,%rbp
  402ed3:	77 02                	ja     402ed7 <deregister_tm_clones+0x17>
  402ed5:	5d                   	pop    %rbp
  402ed6:	c3                   	ret    
  402ed7:	b8 00 00 00 00       	mov    $0x0,%eax
  402edc:	48 85 c0             	test   %rax,%rax
  402edf:	74 f4                	je     402ed5 <deregister_tm_clones+0x15>
  402ee1:	5d                   	pop    %rbp
  402ee2:	bf 40 b5 63 00       	mov    $0x63b540,%edi
  402ee7:	ff e0                	jmp    *%rax
  402ee9:	0f 1f 80 00 00 00 00 	nopl   0x0(%rax)

0000000000402ef0 <register_tm_clones>:
  402ef0:	b8 40 b5 63 00       	mov    $0x63b540,%eax
  402ef5:	55                   	push   %rbp
  402ef6:	48 2d 40 b5 63 00    	sub    $0x63b540,%rax
  402efc:	48 c1 f8 03          	sar    $0x3,%rax
  402f00:	48 89 e5             	mov    %rsp,%rbp
  402f03:	48 89 c2             	mov    %rax,%rdx
  402f06:	48 c1 ea 3f          	shr    $0x3f,%rdx
  402f0a:	48 01 d0             	add    %rdx,%rax
  402f0d:	48 d1 f8             	sar    %rax
  402f10:	75 02                	jne    402f14 <register_tm_clones+0x24>
  402f12:	5d                   	pop    %rbp
  402f13:	c3                   	ret    
  402f14:	ba 00 00 00 00       	mov    $0x0,%edx
  402f19:	48 85 d2             	test   %rdx,%rdx
  402f1c:	74 f4                	je     402f12 <register_tm_clones+0x22>
  402f1e:	5d                   	pop    %rbp
  402f1f:	48 89 c6             	mov    %rax,%rsi
  402f22:	bf 40 b5 63 00       	mov    $0x63b540,%edi
  402f27:	ff e2                	jmp    *%rdx
  402f29:	0f 1f 80 00 00 00 00 	nopl   0x0(%rax)

0000000000402f30 <__do_global_dtors_aux>:
  402f30:	80 3d 8d 86 23 00 00 	cmpb   $0x0,0x23868d(%rip)        # 63b5c4 <completed.6972>
  402f37:	75 11                	jne    402f4a <__do_global_dtors_aux+0x1a>
  402f39:	55                   	push   %rbp
  402f3a:	48 89 e5             	mov    %rsp,%rbp
  402f3d:	e8 7e ff ff ff       	call   402ec0 <deregister_tm_clones>
  402f42:	5d                   	pop    %rbp
  402f43:	c6 05 7a 86 23 00 01 	movb   $0x1,0x23867a(%rip)        # 63b5c4 <completed.6972>
  402f4a:	f3 c3                	repz ret 
  402f4c:	0f 1f 40 00          	nopl   0x0(%rax)

0000000000402f50 <frame_dummy>:
  402f50:	48 83 3d 48 7e 23 00 	cmpq   $0x0,0x237e48(%rip)        # 63ada0 <__JCR_END__>
  402f57:	00 
  402f58:	74 1e                	je     402f78 <frame_dummy+0x28>
  402f5a:	b8 00 00 00 00       	mov    $0x0,%eax
  402f5f:	48 85 c0             	test   %rax,%rax
  402f62:	74 14                	je     402f78 <frame_dummy+0x28>
  402f64:	55                   	push   %rbp
  402f65:	bf a0 ad 63 00       	mov    $0x63ada0,%edi
  402f6a:	48 89 e5             	mov    %rsp,%rbp
  402f6d:	ff d0                	call   *%rax
  402f6f:	5d                   	pop    %rbp
  402f70:	e9 7b ff ff ff       	jmp    402ef0 <register_tm_clones>
  402f75:	0f 1f 00             	nopl   (%rax)
  402f78:	e9 73 ff ff ff       	jmp    402ef0 <register_tm_clones>

0000000000402f7d <_Z15StopBeepHandleri>:
  402f7d:	55                   	push   %rbp
  402f7e:	48 89 e5             	mov    %rsp,%rbp
  402f81:	48 83 ec 10          	sub    $0x10,%rsp
  402f85:	89 7d fc             	mov    %edi,-0x4(%rbp)
  402f88:	83 7d fc 0e          	cmpl   $0xe,-0x4(%rbp)
  402f8c:	74 02                	je     402f90 <_Z15StopBeepHandleri+0x13>
  402f8e:	eb 61                	jmp    402ff1 <_Z15StopBeepHandleri+0x74>
  402f90:	8b 05 56 86 23 00    	mov    0x238656(%rip),%eax        # 63b5ec <g_BeepFd>
  402f96:	83 f8 ff             	cmp    $0xffffffff,%eax
  402f99:	74 33                	je     402fce <_Z15StopBeepHandleri+0x51>
  402f9b:	8b 05 4b 86 23 00    	mov    0x23864b(%rip),%eax        # 63b5ec <g_BeepFd>
  402fa1:	ba 00 00 00 00       	mov    $0x0,%edx
  402fa6:	be 2f 4b 00 00       	mov    $0x4b2f,%esi
  402fab:	89 c7                	mov    %eax,%edi
  402fad:	b8 00 00 00 00       	mov    $0x0,%eax
  402fb2:	e8 d9 fb ff ff       	call   402b90 <ioctl@plt>
  402fb7:	8b 05 2f 86 23 00    	mov    0x23862f(%rip),%eax        # 63b5ec <g_BeepFd>
  402fbd:	89 c7                	mov    %eax,%edi
  402fbf:	e8 bc fe ff ff       	call   402e80 <close@plt>
  402fc4:	c7 05 1e 86 23 00 ff 	movl   $0xffffffff,0x23861e(%rip)        # 63b5ec <g_BeepFd>
  402fcb:	ff ff ff 
  402fce:	8b 05 1c 86 23 00    	mov    0x23861c(%rip),%eax        # 63b5f0 <DebugLevel>
  402fd4:	25 00 10 00 00       	and    $0x1000,%eax
  402fd9:	85 c0                	test   %eax,%eax
  402fdb:	74 14                	je     402ff1 <_Z15StopBeepHandleri+0x74>
  402fdd:	be d0 f5 42 00       	mov    $0x42f5d0,%esi
  402fe2:	bf 00 10 00 00       	mov    $0x1000,%edi
  402fe7:	b8 00 00 00 00       	mov    $0x0,%eax
  402fec:	e8 cb bc 02 00       	call   42ecbc <_Z10DebugPrintiPKcz>
  402ff1:	c9                   	leave  
  402ff2:	c3                   	ret    

0000000000402ff3 <_Z11GetXVersionv>:
  402ff3:	55                   	push   %rbp
  402ff4:	48 89 e5             	mov    %rsp,%rbp
  402ff7:	53                   	push   %rbx
  402ff8:	48 81 ec e8 04 00 00 	sub    $0x4e8,%rsp
  402fff:	64 48 8b 04 25 28 00 	mov    %fs:0x28,%rax
  403006:	00 00 
  403008:	48 89 45 e8          	mov    %rax,-0x18(%rbp)
  40300c:	31 c0                	xor    %eax,%eax
  40300e:	8b 05 dc 85 23 00    	mov    0x2385dc(%rip),%eax        # 63b5f0 <DebugLevel>
  403014:	83 e0 01             	and    $0x1,%eax
  403017:	85 c0                	test   %eax,%eax
  403019:	74 19                	je     403034 <_Z11GetXVersionv+0x41>
  40301b:	ba a4 01 43 00       	mov    $0x4301a4,%edx
  403020:	be dc f5 42 00       	mov    $0x42f5dc,%esi
  403025:	bf 01 00 00 00       	mov    $0x1,%edi
  40302a:	b8 00 00 00 00       	mov    $0x0,%eax
  40302f:	e8 88 bc 02 00       	call   42ecbc <_Z10DebugPrintiPKcz>
  403034:	48 8d b5 20 fb ff ff 	lea    -0x4e0(%rbp),%rsi
  40303b:	b8 00 00 00 00       	mov    $0x0,%eax
  403040:	ba 08 00 00 00       	mov    $0x8,%edx
  403045:	48 89 f7             	mov    %rsi,%rdi
  403048:	48 89 d1             	mov    %rdx,%rcx
  40304b:	f3 48 ab             	rep stos %rax,%es:(%rdi)
  40304e:	48 8d 85 20 fb ff ff 	lea    -0x4e0(%rbp),%rax
  403055:	ba e8 f5 42 00       	mov    $0x42f5e8,%edx
  40305a:	be ed f5 42 00       	mov    $0x42f5ed,%esi
  40305f:	48 89 c7             	mov    %rax,%rdi
  403062:	b8 00 00 00 00       	mov    $0x0,%eax
  403067:	e8 74 f6 ff ff       	call   4026e0 <sprintf@plt>
  40306c:	48 8d b5 60 fb ff ff 	lea    -0x4a0(%rbp),%rsi
  403073:	b8 00 00 00 00       	mov    $0x0,%eax
  403078:	ba 10 00 00 00       	mov    $0x10,%edx
  40307d:	48 89 f7             	mov    %rsi,%rdi
  403080:	48 89 d1             	mov    %rdx,%rcx
  403083:	f3 48 ab             	rep stos %rax,%es:(%rdi)
  403086:	48 8d 85 60 fb ff ff 	lea    -0x4a0(%rbp),%rax
  40308d:	48 bb 58 20 2d 76 65 	movabs $0x69737265762d2058,%rbx
  403094:	72 73 69 
  403097:	48 89 18             	mov    %rbx,(%rax)
  40309a:	66 c7 40 08 6f 6e    	movw   $0x6e6f,0x8(%rax)
  4030a0:	c6 40 0a 00          	movb   $0x0,0xa(%rax)
  4030a4:	48 8d 95 20 fb ff ff 	lea    -0x4e0(%rbp),%rdx
  4030ab:	48 8d 85 60 fb ff ff 	lea    -0x4a0(%rbp),%rax
  4030b2:	48 89 d6             	mov    %rdx,%rsi
  4030b5:	48 89 c7             	mov    %rax,%rdi
  4030b8:	e8 90 b2 02 00       	call   42e34d <_Z11SendCommandPcS_>
  4030bd:	48 89 85 10 fb ff ff 	mov    %rax,-0x4f0(%rbp)
  4030c4:	48 83 bd 10 fb ff ff 	cmpq   $0x0,-0x4f0(%rbp)
  4030cb:	00 
  4030cc:	75 2a                	jne    4030f8 <_Z11GetXVersionv+0x105>
  4030ce:	8b 05 1c 85 23 00    	mov    0x23851c(%rip),%eax        # 63b5f0 <DebugLevel>
  4030d4:	83 e0 01             	and    $0x1,%eax
  4030d7:	85 c0                	test   %eax,%eax
  4030d9:	0f 84 a5 01 00 00    	je     403284 <_Z11GetXVersionv+0x291>
  4030df:	be fa f5 42 00       	mov    $0x42f5fa,%esi
  4030e4:	bf 01 00 00 00       	mov    $0x1,%edi
  4030e9:	b8 00 00 00 00       	mov    $0x0,%eax
  4030ee:	e8 c9 bb 02 00       	call   42ecbc <_Z10DebugPrintiPKcz>
  4030f3:	e9 8c 01 00 00       	jmp    403284 <_Z11GetXVersionv+0x291>
  4030f8:	48 8d b5 e0 fb ff ff 	lea    -0x420(%rbp),%rsi
  4030ff:	b8 00 00 00 00       	mov    $0x0,%eax
  403104:	ba 40 00 00 00       	mov    $0x40,%edx
  403109:	48 89 f7             	mov    %rsi,%rdi
  40310c:	48 89 d1             	mov    %rdx,%rcx
  40310f:	f3 48 ab             	rep stos %rax,%es:(%rdi)
  403112:	48 8d 85 20 fb ff ff 	lea    -0x4e0(%rbp),%rax
  403119:	be 10 f6 42 00       	mov    $0x42f610,%esi
  40311e:	48 89 c7             	mov    %rax,%rdi
  403121:	e8 2a f9 ff ff       	call   402a50 <fopen@plt>
  403126:	48 89 85 10 fb ff ff 	mov    %rax,-0x4f0(%rbp)
  40312d:	48 8d b5 e0 fd ff ff 	lea    -0x220(%rbp),%rsi
  403134:	b8 00 00 00 00       	mov    $0x0,%eax
  403139:	ba 40 00 00 00       	mov    $0x40,%edx
  40313e:	48 89 f7             	mov    %rsi,%rdi
  403141:	48 89 d1             	mov    %rdx,%rcx
  403144:	f3 48 ab             	rep stos %rax,%es:(%rdi)
  403147:	e9 f1 00 00 00       	jmp    40323d <_Z11GetXVersionv+0x24a>
  40314c:	48 8d 85 e0 fb ff ff 	lea    -0x420(%rbp),%rax
  403153:	be 12 f6 42 00       	mov    $0x42f612,%esi
  403158:	48 89 c7             	mov    %rax,%rdi
  40315b:	e8 a0 f5 ff ff       	call   402700 <strstr@plt>
  403160:	48 89 85 18 fb ff ff 	mov    %rax,-0x4e8(%rbp)
  403167:	48 83 bd 18 fb ff ff 	cmpq   $0x0,-0x4e8(%rbp)
  40316e:	00 
  40316f:	75 05                	jne    403176 <_Z11GetXVersionv+0x183>
  403171:	e9 c7 00 00 00       	jmp    40323d <_Z11GetXVersionv+0x24a>
  403176:	48 8b 85 18 fb ff ff 	mov    -0x4e8(%rbp),%rax
  40317d:	0f b6 00             	movzbl (%rax),%eax
  403180:	84 c0                	test   %al,%al
  403182:	0f 84 b5 00 00 00    	je     40323d <_Z11GetXVersionv+0x24a>
  403188:	48 8d 85 e0 fb ff ff 	lea    -0x420(%rbp),%rax
  40318f:	48 8d 50 0f          	lea    0xf(%rax),%rdx
  403193:	48 8d 85 e0 fd ff ff 	lea    -0x220(%rbp),%rax
  40319a:	48 89 d6             	mov    %rdx,%rsi
  40319d:	48 89 c7             	mov    %rax,%rdi
  4031a0:	e8 eb f7 ff ff       	call   402990 <strcpy@plt>
  4031a5:	48 8d 85 e0 fd ff ff 	lea    -0x220(%rbp),%rax
  4031ac:	be 21 f6 42 00       	mov    $0x42f621,%esi
  4031b1:	48 89 c7             	mov    %rax,%rdi
  4031b4:	e8 17 fb ff ff       	call   402cd0 <strtok@plt>
  4031b9:	48 89 c7             	mov    %rax,%rdi
  4031bc:	e8 ff fa ff ff       	call   402cc0 <atoi@plt>
  4031c1:	89 05 19 84 23 00    	mov    %eax,0x238419(%rip)        # 63b5e0 <X_Major>
  4031c7:	be 21 f6 42 00       	mov    $0x42f621,%esi
  4031cc:	bf 00 00 00 00       	mov    $0x0,%edi
  4031d1:	e8 fa fa ff ff       	call   402cd0 <strtok@plt>
  4031d6:	48 89 c7             	mov    %rax,%rdi
  4031d9:	e8 e2 fa ff ff       	call   402cc0 <atoi@plt>
  4031de:	89 05 00 84 23 00    	mov    %eax,0x238400(%rip)        # 63b5e4 <X_Minor>
  4031e4:	be 21 f6 42 00       	mov    $0x42f621,%esi
  4031e9:	bf 00 00 00 00       	mov    $0x0,%edi
  4031ee:	e8 dd fa ff ff       	call   402cd0 <strtok@plt>
  4031f3:	48 89 c7             	mov    %rax,%rdi
  4031f6:	e8 c5 fa ff ff       	call   402cc0 <atoi@plt>
  4031fb:	89 05 e7 83 23 00    	mov    %eax,0x2383e7(%rip)        # 63b5e8 <X_Release>
  403201:	8b 05 e9 83 23 00    	mov    0x2383e9(%rip),%eax        # 63b5f0 <DebugLevel>
  403207:	83 e0 01             	and    $0x1,%eax
  40320a:	85 c0                	test   %eax,%eax
  40320c:	74 2d                	je     40323b <_Z11GetXVersionv+0x248>
  40320e:	8b 0d d4 83 23 00    	mov    0x2383d4(%rip),%ecx        # 63b5e8 <X_Release>
  403214:	8b 15 ca 83 23 00    	mov    0x2383ca(%rip),%edx        # 63b5e4 <X_Minor>
  40321a:	8b 05 c0 83 23 00    	mov    0x2383c0(%rip),%eax        # 63b5e0 <X_Major>
  403220:	41 89 c8             	mov    %ecx,%r8d
  403223:	89 d1                	mov    %edx,%ecx
  403225:	89 c2                	mov    %eax,%edx
  403227:	be 23 f6 42 00       	mov    $0x42f623,%esi
  40322c:	bf 01 00 00 00       	mov    $0x1,%edi
  403231:	b8 00 00 00 00       	mov    $0x0,%eax
  403236:	e8 81 ba 02 00       	call   42ecbc <_Z10DebugPrintiPKcz>
  40323b:	eb 29                	jmp    403266 <_Z11GetXVersionv+0x273>
  40323d:	48 8b 95 10 fb ff ff 	mov    -0x4f0(%rbp),%rdx
  403244:	48 8d 85 e0 fb ff ff 	lea    -0x420(%rbp),%rax
  40324b:	be 00 02 00 00       	mov    $0x200,%esi
  403250:	48 89 c7             	mov    %rax,%rdi
  403253:	e8 98 fa ff ff       	call   402cf0 <fgets@plt>
  403258:	48 85 c0             	test   %rax,%rax
  40325b:	0f 95 c0             	setne  %al
  40325e:	84 c0                	test   %al,%al
  403260:	0f 85 e6 fe ff ff    	jne    40314c <_Z11GetXVersionv+0x159>
  403266:	48 8b 85 10 fb ff ff 	mov    -0x4f0(%rbp),%rax
  40326d:	48 89 c7             	mov    %rax,%rdi
  403270:	e8 6b f7 ff ff       	call   4029e0 <fclose@plt>
  403275:	48 8d 85 20 fb ff ff 	lea    -0x4e0(%rbp),%rax
  40327c:	48 89 c7             	mov    %rax,%rdi
  40327f:	e8 4c fb ff ff       	call   402dd0 <remove@plt>
  403284:	48 8b 45 e8          	mov    -0x18(%rbp),%rax
  403288:	64 48 33 04 25 28 00 	xor    %fs:0x28,%rax
  40328f:	00 00 
  403291:	74 05                	je     403298 <_Z11GetXVersionv+0x2a5>
  403293:	e8 88 f7 ff ff       	call   402a20 <__stack_chk_fail@plt>
  403298:	48 81 c4 e8 04 00 00 	add    $0x4e8,%rsp
  40329f:	5b                   	pop    %rbx
  4032a0:	5d                   	pop    %rbp
  4032a1:	c3                   	ret    

00000000004032a2 <_Z10GetCPUinfov>:
  4032a2:	55                   	push   %rbp
  4032a3:	48 89 e5             	mov    %rsp,%rbp
  4032a6:	53                   	push   %rbx
  4032a7:	48 81 ec 68 03 00 00 	sub    $0x368,%rsp
  4032ae:	64 48 8b 04 25 28 00 	mov    %fs:0x28,%rax
  4032b5:	00 00 
  4032b7:	48 89 45 e8          	mov    %rax,-0x18(%rbp)
  4032bb:	31 c0                	xor    %eax,%eax
  4032bd:	8b 05 2d 83 23 00    	mov    0x23832d(%rip),%eax        # 63b5f0 <DebugLevel>
  4032c3:	83 e0 01             	and    $0x1,%eax
  4032c6:	85 c0                	test   %eax,%eax
  4032c8:	74 19                	je     4032e3 <_Z10GetCPUinfov+0x41>
  4032ca:	ba b0 01 43 00       	mov    $0x4301b0,%edx
  4032cf:	be dc f5 42 00       	mov    $0x42f5dc,%esi
  4032d4:	bf 01 00 00 00       	mov    $0x1,%edi
  4032d9:	b8 00 00 00 00       	mov    $0x0,%eax
  4032de:	e8 d9 b9 02 00       	call   42ecbc <_Z10DebugPrintiPKcz>
  4032e3:	48 8d b5 a0 fc ff ff 	lea    -0x360(%rbp),%rsi
  4032ea:	b8 00 00 00 00       	mov    $0x0,%eax
  4032ef:	ba 08 00 00 00       	mov    $0x8,%edx
  4032f4:	48 89 f7             	mov    %rsi,%rdi
  4032f7:	48 89 d1             	mov    %rdx,%rcx
  4032fa:	f3 48 ab             	rep stos %rax,%es:(%rdi)
  4032fd:	48 8d 85 a0 fc ff ff 	lea    -0x360(%rbp),%rax
  403304:	ba e8 f5 42 00       	mov    $0x42f5e8,%edx
  403309:	be ed f5 42 00       	mov    $0x42f5ed,%esi
  40330e:	48 89 c7             	mov    %rax,%rdi
  403311:	b8 00 00 00 00       	mov    $0x0,%eax
  403316:	e8 c5 f3 ff ff       	call   4026e0 <sprintf@plt>
  40331b:	48 8d b5 e0 fc ff ff 	lea    -0x320(%rbp),%rsi
  403322:	b8 00 00 00 00       	mov    $0x0,%eax
  403327:	ba 10 00 00 00       	mov    $0x10,%edx
  40332c:	48 89 f7             	mov    %rsi,%rdi
  40332f:	48 89 d1             	mov    %rdx,%rcx
  403332:	f3 48 ab             	rep stos %rax,%es:(%rdi)
  403335:	48 8d 85 e0 fc ff ff 	lea    -0x320(%rbp),%rax
  40333c:	48 bb 75 6e 61 6d 65 	movabs $0x6d2d20656d616e75,%rbx
  403343:	20 2d 6d 
  403346:	48 89 18             	mov    %rbx,(%rax)
  403349:	c6 40 08 00          	movb   $0x0,0x8(%rax)
  40334d:	48 8d 95 a0 fc ff ff 	lea    -0x360(%rbp),%rdx
  403354:	48 8d 85 e0 fc ff ff 	lea    -0x320(%rbp),%rax
  40335b:	48 89 d6             	mov    %rdx,%rsi
  40335e:	48 89 c7             	mov    %rax,%rdi
  403361:	e8 e7 af 02 00       	call   42e34d <_Z11SendCommandPcS_>
  403366:	48 89 85 98 fc ff ff 	mov    %rax,-0x368(%rbp)
  40336d:	48 83 bd 98 fc ff ff 	cmpq   $0x0,-0x368(%rbp)
  403374:	00 
  403375:	75 2a                	jne    4033a1 <_Z10GetCPUinfov+0xff>
  403377:	8b 05 73 82 23 00    	mov    0x238273(%rip),%eax        # 63b5f0 <DebugLevel>
  40337d:	83 e0 01             	and    $0x1,%eax
  403380:	85 c0                	test   %eax,%eax
  403382:	0f 84 db 00 00 00    	je     403463 <_Z10GetCPUinfov+0x1c1>
  403388:	be 3d f6 42 00       	mov    $0x42f63d,%esi
  40338d:	bf 01 00 00 00       	mov    $0x1,%edi
  403392:	b8 00 00 00 00       	mov    $0x0,%eax
  403397:	e8 20 b9 02 00       	call   42ecbc <_Z10DebugPrintiPKcz>
  40339c:	e9 c2 00 00 00       	jmp    403463 <_Z10GetCPUinfov+0x1c1>
  4033a1:	48 8d b5 60 fd ff ff 	lea    -0x2a0(%rbp),%rsi
  4033a8:	b8 00 00 00 00       	mov    $0x0,%eax
  4033ad:	ba 10 00 00 00       	mov    $0x10,%edx
  4033b2:	48 89 f7             	mov    %rsi,%rdi
  4033b5:	48 89 d1             	mov    %rdx,%rcx
  4033b8:	f3 48 ab             	rep stos %rax,%es:(%rdi)
  4033bb:	48 8d b5 e0 fd ff ff 	lea    -0x220(%rbp),%rsi
  4033c2:	b8 00 00 00 00       	mov    $0x0,%eax
  4033c7:	ba 40 00 00 00       	mov    $0x40,%edx
  4033cc:	48 89 f7             	mov    %rsi,%rdi
  4033cf:	48 89 d1             	mov    %rdx,%rcx
  4033d2:	f3 48 ab             	rep stos %rax,%es:(%rdi)
  4033d5:	eb 19                	jmp    4033f0 <_Z10GetCPUinfov+0x14e>
  4033d7:	48 8d 95 60 fd ff ff 	lea    -0x2a0(%rbp),%rdx
  4033de:	48 8d 85 e0 fd ff ff 	lea    -0x220(%rbp),%rax
  4033e5:	48 89 d6             	mov    %rdx,%rsi
  4033e8:	48 89 c7             	mov    %rax,%rdi
  4033eb:	e8 d0 f9 ff ff       	call   402dc0 <strcat@plt>
  4033f0:	48 8d 95 60 fd ff ff 	lea    -0x2a0(%rbp),%rdx
  4033f7:	48 8b 85 98 fc ff ff 	mov    -0x368(%rbp),%rax
  4033fe:	be 51 f6 42 00       	mov    $0x42f651,%esi
  403403:	48 89 c7             	mov    %rax,%rdi
  403406:	b8 00 00 00 00       	mov    $0x0,%eax
  40340b:	e8 30 fa ff ff       	call   402e40 <fscanf@plt>
  403410:	83 f8 ff             	cmp    $0xffffffff,%eax
  403413:	0f 95 c0             	setne  %al
  403416:	84 c0                	test   %al,%al
  403418:	75 bd                	jne    4033d7 <_Z10GetCPUinfov+0x135>
  40341a:	8b 05 d0 81 23 00    	mov    0x2381d0(%rip),%eax        # 63b5f0 <DebugLevel>
  403420:	83 e0 01             	and    $0x1,%eax
  403423:	85 c0                	test   %eax,%eax
  403425:	74 1e                	je     403445 <_Z10GetCPUinfov+0x1a3>
  403427:	48 8d 85 e0 fd ff ff 	lea    -0x220(%rbp),%rax
  40342e:	48 89 c2             	mov    %rax,%rdx
  403431:	be 54 f6 42 00       	mov    $0x42f654,%esi
  403436:	bf 01 00 00 00       	mov    $0x1,%edi
  40343b:	b8 00 00 00 00       	mov    $0x0,%eax
  403440:	e8 77 b8 02 00       	call   42ecbc <_Z10DebugPrintiPKcz>
  403445:	48 8b 85 98 fc ff ff 	mov    -0x368(%rbp),%rax
  40344c:	48 89 c7             	mov    %rax,%rdi
  40344f:	e8 8c f5 ff ff       	call   4029e0 <fclose@plt>
  403454:	48 8d 85 a0 fc ff ff 	lea    -0x360(%rbp),%rax
  40345b:	48 89 c7             	mov    %rax,%rdi
  40345e:	e8 6d f9 ff ff       	call   402dd0 <remove@plt>
  403463:	48 8b 45 e8          	mov    -0x18(%rbp),%rax
  403467:	64 48 33 04 25 28 00 	xor    %fs:0x28,%rax
  40346e:	00 00 
  403470:	74 05                	je     403477 <_Z10GetCPUinfov+0x1d5>
  403472:	e8 a9 f5 ff ff       	call   402a20 <__stack_chk_fail@plt>
  403477:	48 81 c4 68 03 00 00 	add    $0x368,%rsp
  40347e:	5b                   	pop    %rbx
  40347f:	5d                   	pop    %rbp
  403480:	c3                   	ret    

0000000000403481 <_Z17printDBGLevelHeadP8_IO_FILEi>:
  403481:	55                   	push   %rbp
  403482:	48 89 e5             	mov    %rsp,%rbp
  403485:	48 83 ec 10          	sub    $0x10,%rsp
  403489:	48 89 7d f8          	mov    %rdi,-0x8(%rbp)
  40348d:	89 75 f4             	mov    %esi,-0xc(%rbp)
  403490:	8b 45 f4             	mov    -0xc(%rbp),%eax
  403493:	83 f8 40             	cmp    $0x40,%eax
  403496:	0f 84 68 01 00 00    	je     403604 <_Z17printDBGLevelHeadP8_IO_FILEi+0x183>
  40349c:	83 f8 40             	cmp    $0x40,%eax
  40349f:	7f 38                	jg     4034d9 <_Z17printDBGLevelHeadP8_IO_FILEi+0x58>
  4034a1:	83 f8 04             	cmp    $0x4,%eax
  4034a4:	0f 84 9a 00 00 00    	je     403544 <_Z17printDBGLevelHeadP8_IO_FILEi+0xc3>
  4034aa:	83 f8 04             	cmp    $0x4,%eax
  4034ad:	7f 13                	jg     4034c2 <_Z17printDBGLevelHeadP8_IO_FILEi+0x41>
  4034af:	83 f8 01             	cmp    $0x1,%eax
  4034b2:	74 70                	je     403524 <_Z17printDBGLevelHeadP8_IO_FILEi+0xa3>
  4034b4:	83 f8 02             	cmp    $0x2,%eax
  4034b7:	0f 84 e7 00 00 00    	je     4035a4 <_Z17printDBGLevelHeadP8_IO_FILEi+0x123>
  4034bd:	e9 d2 01 00 00       	jmp    403694 <_Z17printDBGLevelHeadP8_IO_FILEi+0x213>
  4034c2:	83 f8 10             	cmp    $0x10,%eax
  4034c5:	0f 84 90 01 00 00    	je     40365b <_Z17printDBGLevelHeadP8_IO_FILEi+0x1da>
  4034cb:	83 f8 20             	cmp    $0x20,%eax
  4034ce:	0f 84 a4 01 00 00    	je     403678 <_Z17printDBGLevelHeadP8_IO_FILEi+0x1f7>
  4034d4:	e9 bb 01 00 00       	jmp    403694 <_Z17printDBGLevelHeadP8_IO_FILEi+0x213>
  4034d9:	3d 00 10 00 00       	cmp    $0x1000,%eax
  4034de:	0f 84 3d 01 00 00    	je     403621 <_Z17printDBGLevelHeadP8_IO_FILEi+0x1a0>
  4034e4:	3d 00 10 00 00       	cmp    $0x1000,%eax
  4034e9:	7f 1b                	jg     403506 <_Z17printDBGLevelHeadP8_IO_FILEi+0x85>
  4034eb:	3d 00 01 00 00       	cmp    $0x100,%eax
  4034f0:	0f 84 ce 00 00 00    	je     4035c4 <_Z17printDBGLevelHeadP8_IO_FILEi+0x143>
  4034f6:	3d 00 02 00 00       	cmp    $0x200,%eax
  4034fb:	0f 84 e3 00 00 00    	je     4035e4 <_Z17printDBGLevelHeadP8_IO_FILEi+0x163>
  403501:	e9 8e 01 00 00       	jmp    403694 <_Z17printDBGLevelHeadP8_IO_FILEi+0x213>
  403506:	3d 00 00 10 00       	cmp    $0x100000,%eax
  40350b:	74 57                	je     403564 <_Z17printDBGLevelHeadP8_IO_FILEi+0xe3>
  40350d:	3d 00 00 20 00       	cmp    $0x200000,%eax
  403512:	74 70                	je     403584 <_Z17printDBGLevelHeadP8_IO_FILEi+0x103>
  403514:	3d 00 00 01 00       	cmp    $0x10000,%eax
  403519:	0f 84 1f 01 00 00    	je     40363e <_Z17printDBGLevelHeadP8_IO_FILEi+0x1bd>
  40351f:	e9 70 01 00 00       	jmp    403694 <_Z17printDBGLevelHeadP8_IO_FILEi+0x213>
  403524:	48 8b 45 f8          	mov    -0x8(%rbp),%rax
  403528:	48 89 c1             	mov    %rax,%rcx
  40352b:	ba 06 00 00 00       	mov    $0x6,%edx
  403530:	be 01 00 00 00       	mov    $0x1,%esi
  403535:	bf 5d f6 42 00       	mov    $0x42f65d,%edi
  40353a:	e8 31 f9 ff ff       	call   402e70 <fwrite@plt>
  40353f:	e9 50 01 00 00       	jmp    403694 <_Z17printDBGLevelHeadP8_IO_FILEi+0x213>
  403544:	48 8b 45 f8          	mov    -0x8(%rbp),%rax
  403548:	48 89 c1             	mov    %rax,%rcx
  40354b:	ba 07 00 00 00       	mov    $0x7,%edx
  403550:	be 01 00 00 00       	mov    $0x1,%esi
  403555:	bf 64 f6 42 00       	mov    $0x42f664,%edi
  40355a:	e8 11 f9 ff ff       	call   402e70 <fwrite@plt>
  40355f:	e9 30 01 00 00       	jmp    403694 <_Z17printDBGLevelHeadP8_IO_FILEi+0x213>
  403564:	48 8b 45 f8          	mov    -0x8(%rbp),%rax
  403568:	48 89 c1             	mov    %rax,%rcx
  40356b:	ba 06 00 00 00       	mov    $0x6,%edx
  403570:	be 01 00 00 00       	mov    $0x1,%esi
  403575:	bf 6c f6 42 00       	mov    $0x42f66c,%edi
  40357a:	e8 f1 f8 ff ff       	call   402e70 <fwrite@plt>
  40357f:	e9 10 01 00 00       	jmp    403694 <_Z17printDBGLevelHeadP8_IO_FILEi+0x213>
  403584:	48 8b 45 f8          	mov    -0x8(%rbp),%rax
  403588:	48 89 c1             	mov    %rax,%rcx
  40358b:	ba 06 00 00 00       	mov    $0x6,%edx
  403590:	be 01 00 00 00       	mov    $0x1,%esi
  403595:	bf 73 f6 42 00       	mov    $0x42f673,%edi
  40359a:	e8 d1 f8 ff ff       	call   402e70 <fwrite@plt>
  40359f:	e9 f0 00 00 00       	jmp    403694 <_Z17printDBGLevelHeadP8_IO_FILEi+0x213>
  4035a4:	48 8b 45 f8          	mov    -0x8(%rbp),%rax
  4035a8:	48 89 c1             	mov    %rax,%rcx
  4035ab:	ba 06 00 00 00       	mov    $0x6,%edx
  4035b0:	be 01 00 00 00       	mov    $0x1,%esi
  4035b5:	bf 7a f6 42 00       	mov    $0x42f67a,%edi
  4035ba:	e8 b1 f8 ff ff       	call   402e70 <fwrite@plt>
  4035bf:	e9 d0 00 00 00       	jmp    403694 <_Z17printDBGLevelHeadP8_IO_FILEi+0x213>
  4035c4:	48 8b 45 f8          	mov    -0x8(%rbp),%rax
  4035c8:	48 89 c1             	mov    %rax,%rcx
  4035cb:	ba 05 00 00 00       	mov    $0x5,%edx
  4035d0:	be 01 00 00 00       	mov    $0x1,%esi
  4035d5:	bf 81 f6 42 00       	mov    $0x42f681,%edi
  4035da:	e8 91 f8 ff ff       	call   402e70 <fwrite@plt>
  4035df:	e9 b0 00 00 00       	jmp    403694 <_Z17printDBGLevelHeadP8_IO_FILEi+0x213>
  4035e4:	48 8b 45 f8          	mov    -0x8(%rbp),%rax
  4035e8:	48 89 c1             	mov    %rax,%rcx
  4035eb:	ba 08 00 00 00       	mov    $0x8,%edx
  4035f0:	be 01 00 00 00       	mov    $0x1,%esi
  4035f5:	bf 87 f6 42 00       	mov    $0x42f687,%edi
  4035fa:	e8 71 f8 ff ff       	call   402e70 <fwrite@plt>
  4035ff:	e9 90 00 00 00       	jmp    403694 <_Z17printDBGLevelHeadP8_IO_FILEi+0x213>
  403604:	48 8b 45 f8          	mov    -0x8(%rbp),%rax
  403608:	48 89 c1             	mov    %rax,%rcx
  40360b:	ba 06 00 00 00       	mov    $0x6,%edx
  403610:	be 01 00 00 00       	mov    $0x1,%esi
  403615:	bf 90 f6 42 00       	mov    $0x42f690,%edi
  40361a:	e8 51 f8 ff ff       	call   402e70 <fwrite@plt>
  40361f:	eb 73                	jmp    403694 <_Z17printDBGLevelHeadP8_IO_FILEi+0x213>
  403621:	48 8b 45 f8          	mov    -0x8(%rbp),%rax
  403625:	48 89 c1             	mov    %rax,%rcx
  403628:	ba 06 00 00 00       	mov    $0x6,%edx
  40362d:	be 01 00 00 00       	mov    $0x1,%esi
  403632:	bf 97 f6 42 00       	mov    $0x42f697,%edi
  403637:	e8 34 f8 ff ff       	call   402e70 <fwrite@plt>
  40363c:	eb 56                	jmp    403694 <_Z17printDBGLevelHeadP8_IO_FILEi+0x213>
  40363e:	48 8b 45 f8          	mov    -0x8(%rbp),%rax
  403642:	48 89 c1             	mov    %rax,%rcx
  403645:	ba 06 00 00 00       	mov    $0x6,%edx
  40364a:	be 01 00 00 00       	mov    $0x1,%esi
  40364f:	bf 9e f6 42 00       	mov    $0x42f69e,%edi
  403654:	e8 17 f8 ff ff       	call   402e70 <fwrite@plt>
  403659:	eb 39                	jmp    403694 <_Z17printDBGLevelHeadP8_IO_FILEi+0x213>
  40365b:	48 8b 45 f8          	mov    -0x8(%rbp),%rax
  40365f:	48 89 c1             	mov    %rax,%rcx
  403662:	ba 05 00 00 00       	mov    $0x5,%edx
  403667:	be 01 00 00 00       	mov    $0x1,%esi
  40366c:	bf a5 f6 42 00       	mov    $0x42f6a5,%edi
  403671:	e8 fa f7 ff ff       	call   402e70 <fwrite@plt>
  403676:	eb 1c                	jmp    403694 <_Z17printDBGLevelHeadP8_IO_FILEi+0x213>
  403678:	48 8b 45 f8          	mov    -0x8(%rbp),%rax
  40367c:	48 89 c1             	mov    %rax,%rcx
  40367f:	ba 09 00 00 00       	mov    $0x9,%edx
  403684:	be 01 00 00 00       	mov    $0x1,%esi
  403689:	bf ab f6 42 00       	mov    $0x42f6ab,%edi
  40368e:	e8 dd f7 ff ff       	call   402e70 <fwrite@plt>
  403693:	90                   	nop
  403694:	48 8b 45 f8          	mov    -0x8(%rbp),%rax
  403698:	48 89 c6             	mov    %rax,%rsi
  40369b:	bf 20 00 00 00       	mov    $0x20,%edi
  4036a0:	e8 2b f4 ff ff       	call   402ad0 <fputc@plt>
  4036a5:	c9                   	leave  
  4036a6:	c3                   	ret    

00000000004036a7 <_Z17printDBGLevelHeadi>:
  4036a7:	55                   	push   %rbp
  4036a8:	48 89 e5             	mov    %rsp,%rbp
  4036ab:	48 83 ec 10          	sub    $0x10,%rsp
  4036af:	89 7d fc             	mov    %edi,-0x4(%rbp)
  4036b2:	8b 45 fc             	mov    -0x4(%rbp),%eax
  4036b5:	83 f8 40             	cmp    $0x40,%eax
  4036b8:	0f 84 0b 01 00 00    	je     4037c9 <_Z17printDBGLevelHeadi+0x122>
  4036be:	83 f8 40             	cmp    $0x40,%eax
  4036c1:	7f 38                	jg     4036fb <_Z17printDBGLevelHeadi+0x54>
  4036c3:	83 f8 04             	cmp    $0x4,%eax
  4036c6:	0f 84 8e 00 00 00    	je     40375a <_Z17printDBGLevelHeadi+0xb3>
  4036cc:	83 f8 04             	cmp    $0x4,%eax
  4036cf:	7f 13                	jg     4036e4 <_Z17printDBGLevelHeadi+0x3d>
  4036d1:	83 f8 01             	cmp    $0x1,%eax
  4036d4:	74 70                	je     403746 <_Z17printDBGLevelHeadi+0x9f>
  4036d6:	83 f8 02             	cmp    $0x2,%eax
  4036d9:	0f 84 b7 00 00 00    	je     403796 <_Z17printDBGLevelHeadi+0xef>
  4036df:	e9 39 01 00 00       	jmp    40381d <_Z17printDBGLevelHeadi+0x176>
  4036e4:	83 f8 10             	cmp    $0x10,%eax
  4036e7:	0f 84 0f 01 00 00    	je     4037fc <_Z17printDBGLevelHeadi+0x155>
  4036ed:	83 f8 20             	cmp    $0x20,%eax
  4036f0:	0f 84 17 01 00 00    	je     40380d <_Z17printDBGLevelHeadi+0x166>
  4036f6:	e9 22 01 00 00       	jmp    40381d <_Z17printDBGLevelHeadi+0x176>
  4036fb:	3d 00 10 00 00       	cmp    $0x1000,%eax
  403700:	0f 84 d4 00 00 00    	je     4037da <_Z17printDBGLevelHeadi+0x133>
  403706:	3d 00 10 00 00       	cmp    $0x1000,%eax
  40370b:	7f 1b                	jg     403728 <_Z17printDBGLevelHeadi+0x81>
  40370d:	3d 00 01 00 00       	cmp    $0x100,%eax
  403712:	0f 84 8f 00 00 00    	je     4037a7 <_Z17printDBGLevelHeadi+0x100>
  403718:	3d 00 02 00 00       	cmp    $0x200,%eax
  40371d:	0f 84 95 00 00 00    	je     4037b8 <_Z17printDBGLevelHeadi+0x111>
  403723:	e9 f5 00 00 00       	jmp    40381d <_Z17printDBGLevelHeadi+0x176>
  403728:	3d 00 00 10 00       	cmp    $0x100000,%eax
  40372d:	74 3f                	je     40376e <_Z17printDBGLevelHeadi+0xc7>
  40372f:	3d 00 00 20 00       	cmp    $0x200000,%eax
  403734:	74 4c                	je     403782 <_Z17printDBGLevelHeadi+0xdb>
  403736:	3d 00 00 01 00       	cmp    $0x10000,%eax
  40373b:	0f 84 aa 00 00 00    	je     4037eb <_Z17printDBGLevelHeadi+0x144>
  403741:	e9 d7 00 00 00       	jmp    40381d <_Z17printDBGLevelHeadi+0x176>
  403746:	bf 5d f6 42 00       	mov    $0x42f65d,%edi
  40374b:	b8 00 00 00 00       	mov    $0x0,%eax
  403750:	e8 4b ef ff ff       	call   4026a0 <printf@plt>
  403755:	e9 c3 00 00 00       	jmp    40381d <_Z17printDBGLevelHeadi+0x176>
  40375a:	bf 64 f6 42 00       	mov    $0x42f664,%edi
  40375f:	b8 00 00 00 00       	mov    $0x0,%eax
  403764:	e8 37 ef ff ff       	call   4026a0 <printf@plt>
  403769:	e9 af 00 00 00       	jmp    40381d <_Z17printDBGLevelHeadi+0x176>
  40376e:	bf 6c f6 42 00       	mov    $0x42f66c,%edi
  403773:	b8 00 00 00 00       	mov    $0x0,%eax
  403778:	e8 23 ef ff ff       	call   4026a0 <printf@plt>
  40377d:	e9 9b 00 00 00       	jmp    40381d <_Z17printDBGLevelHeadi+0x176>
  403782:	bf 73 f6 42 00       	mov    $0x42f673,%edi
  403787:	b8 00 00 00 00       	mov    $0x0,%eax
  40378c:	e8 0f ef ff ff       	call   4026a0 <printf@plt>
  403791:	e9 87 00 00 00       	jmp    40381d <_Z17printDBGLevelHeadi+0x176>
  403796:	bf 7a f6 42 00       	mov    $0x42f67a,%edi
  40379b:	b8 00 00 00 00       	mov    $0x0,%eax
  4037a0:	e8 fb ee ff ff       	call   4026a0 <printf@plt>
  4037a5:	eb 76                	jmp    40381d <_Z17printDBGLevelHeadi+0x176>
  4037a7:	bf 81 f6 42 00       	mov    $0x42f681,%edi
  4037ac:	b8 00 00 00 00       	mov    $0x0,%eax
  4037b1:	e8 ea ee ff ff       	call   4026a0 <printf@plt>
  4037b6:	eb 65                	jmp    40381d <_Z17printDBGLevelHeadi+0x176>
  4037b8:	bf 87 f6 42 00       	mov    $0x42f687,%edi
  4037bd:	b8 00 00 00 00       	mov    $0x0,%eax
  4037c2:	e8 d9 ee ff ff       	call   4026a0 <printf@plt>
  4037c7:	eb 54                	jmp    40381d <_Z17printDBGLevelHeadi+0x176>
  4037c9:	bf 90 f6 42 00       	mov    $0x42f690,%edi
  4037ce:	b8 00 00 00 00       	mov    $0x0,%eax
  4037d3:	e8 c8 ee ff ff       	call   4026a0 <printf@plt>
  4037d8:	eb 43                	jmp    40381d <_Z17printDBGLevelHeadi+0x176>
  4037da:	bf 97 f6 42 00       	mov    $0x42f697,%edi
  4037df:	b8 00 00 00 00       	mov    $0x0,%eax
  4037e4:	e8 b7 ee ff ff       	call   4026a0 <printf@plt>
  4037e9:	eb 32                	jmp    40381d <_Z17printDBGLevelHeadi+0x176>
  4037eb:	bf 9e f6 42 00       	mov    $0x42f69e,%edi
  4037f0:	b8 00 00 00 00       	mov    $0x0,%eax
  4037f5:	e8 a6 ee ff ff       	call   4026a0 <printf@plt>
  4037fa:	eb 21                	jmp    40381d <_Z17printDBGLevelHeadi+0x176>
  4037fc:	bf a5 f6 42 00       	mov    $0x42f6a5,%edi
  403801:	b8 00 00 00 00       	mov    $0x0,%eax
  403806:	e8 95 ee ff ff       	call   4026a0 <printf@plt>
  40380b:	eb 10                	jmp    40381d <_Z17printDBGLevelHeadi+0x176>
  40380d:	bf ab f6 42 00       	mov    $0x42f6ab,%edi
  403812:	b8 00 00 00 00       	mov    $0x0,%eax
  403817:	e8 84 ee ff ff       	call   4026a0 <printf@plt>
  40381c:	90                   	nop
  40381d:	bf 20 00 00 00       	mov    $0x20,%edi
  403822:	e8 39 f3 ff ff       	call   402b60 <putchar@plt>
  403827:	c9                   	leave  
  403828:	c3                   	ret    

0000000000403829 <_Z15PrintParamToLogP15tageDaemonParam>:
  403829:	55                   	push   %rbp
  40382a:	48 89 e5             	mov    %rsp,%rbp
  40382d:	48 83 ec 20          	sub    $0x20,%rsp
  403831:	48 89 7d e8          	mov    %rdi,-0x18(%rbp)
  403835:	8b 05 b5 7d 23 00    	mov    0x237db5(%rip),%eax        # 63b5f0 <DebugLevel>
  40383b:	83 e0 01             	and    $0x1,%eax
  40383e:	85 c0                	test   %eax,%eax
  403840:	74 19                	je     40385b <_Z15PrintParamToLogP15tageDaemonParam+0x32>
  403842:	ba b5 f6 42 00       	mov    $0x42f6b5,%edx
  403847:	be bf f6 42 00       	mov    $0x42f6bf,%esi
  40384c:	bf 01 00 00 00       	mov    $0x1,%edi
  403851:	b8 00 00 00 00       	mov    $0x0,%eax
  403856:	e8 61 b4 02 00       	call   42ecbc <_Z10DebugPrintiPKcz>
  40385b:	8b 05 8f 7d 23 00    	mov    0x237d8f(%rip),%eax        # 63b5f0 <DebugLevel>
  403861:	83 e0 04             	and    $0x4,%eax
  403864:	85 c0                	test   %eax,%eax
  403866:	74 28                	je     403890 <_Z15PrintParamToLogP15tageDaemonParam+0x67>
  403868:	0f b6 05 85 7d 23 00 	movzbl 0x237d85(%rip),%eax        # 63b5f4 <ShowDebugPosition>
  40386f:	0f b6 d0             	movzbl %al,%edx
  403872:	8b 05 78 7d 23 00    	mov    0x237d78(%rip),%eax        # 63b5f0 <DebugLevel>
  403878:	89 d1                	mov    %edx,%ecx
  40387a:	89 c2                	mov    %eax,%edx
  40387c:	be d8 f6 42 00       	mov    $0x42f6d8,%esi
  403881:	bf 04 00 00 00       	mov    $0x4,%edi
  403886:	b8 00 00 00 00       	mov    $0x0,%eax
  40388b:	e8 2c b4 02 00       	call   42ecbc <_Z10DebugPrintiPKcz>
  403890:	8b 05 5a 7d 23 00    	mov    0x237d5a(%rip),%eax        # 63b5f0 <DebugLevel>
  403896:	83 e0 04             	and    $0x4,%eax
  403899:	85 c0                	test   %eax,%eax
  40389b:	74 41                	je     4038de <_Z15PrintParamToLogP15tageDaemonParam+0xb5>
  40389d:	48 8b 45 e8          	mov    -0x18(%rbp),%rax
  4038a1:	8b 88 bc 01 00 00    	mov    0x1bc(%rax),%ecx
  4038a7:	48 8b 45 e8          	mov    -0x18(%rbp),%rax
  4038ab:	0f b6 80 d8 01 00 00 	movzbl 0x1d8(%rax),%eax
  4038b2:	0f be d0             	movsbl %al,%edx
  4038b5:	48 8b 45 e8          	mov    -0x18(%rbp),%rax
  4038b9:	0f b6 80 c9 01 00 00 	movzbl 0x1c9(%rax),%eax
  4038c0:	0f be c0             	movsbl %al,%eax
  4038c3:	41 89 c8             	mov    %ecx,%r8d
  4038c6:	89 d1                	mov    %edx,%ecx
  4038c8:	89 c2                	mov    %eax,%edx
  4038ca:	be 00 f7 42 00       	mov    $0x42f700,%esi
  4038cf:	bf 04 00 00 00       	mov    $0x4,%edi
  4038d4:	b8 00 00 00 00       	mov    $0x0,%eax
  4038d9:	e8 de b3 02 00       	call   42ecbc <_Z10DebugPrintiPKcz>
  4038de:	8b 05 0c 7d 23 00    	mov    0x237d0c(%rip),%eax        # 63b5f0 <DebugLevel>
  4038e4:	83 e0 04             	and    $0x4,%eax
  4038e7:	85 c0                	test   %eax,%eax
  4038e9:	74 24                	je     40390f <_Z15PrintParamToLogP15tageDaemonParam+0xe6>
  4038eb:	48 8b 45 e8          	mov    -0x18(%rbp),%rax
  4038ef:	0f b6 80 da 01 00 00 	movzbl 0x1da(%rax),%eax
  4038f6:	0f b6 c0             	movzbl %al,%eax
  4038f9:	89 c2                	mov    %eax,%edx
  4038fb:	be 39 f7 42 00       	mov    $0x42f739,%esi
  403900:	bf 04 00 00 00       	mov    $0x4,%edi
  403905:	b8 00 00 00 00       	mov    $0x0,%eax
  40390a:	e8 ad b3 02 00       	call   42ecbc <_Z10DebugPrintiPKcz>
  40390f:	8b 05 db 7c 23 00    	mov    0x237cdb(%rip),%eax        # 63b5f0 <DebugLevel>
  403915:	83 e0 04             	and    $0x4,%eax
  403918:	85 c0                	test   %eax,%eax
  40391a:	74 24                	je     403940 <_Z15PrintParamToLogP15tageDaemonParam+0x117>
  40391c:	48 8b 45 e8          	mov    -0x18(%rbp),%rax
  403920:	0f b6 80 db 01 00 00 	movzbl 0x1db(%rax),%eax
  403927:	0f b6 c0             	movzbl %al,%eax
  40392a:	89 c2                	mov    %eax,%edx
  40392c:	be 4c f7 42 00       	mov    $0x42f74c,%esi
  403931:	bf 04 00 00 00       	mov    $0x4,%edi
  403936:	b8 00 00 00 00       	mov    $0x0,%eax
  40393b:	e8 7c b3 02 00       	call   42ecbc <_Z10DebugPrintiPKcz>
  403940:	8b 05 aa 7c 23 00    	mov    0x237caa(%rip),%eax        # 63b5f0 <DebugLevel>
  403946:	83 e0 04             	and    $0x4,%eax
  403949:	85 c0                	test   %eax,%eax
  40394b:	74 24                	je     403971 <_Z15PrintParamToLogP15tageDaemonParam+0x148>
  40394d:	48 8b 45 e8          	mov    -0x18(%rbp),%rax
  403951:	0f b6 80 dc 01 00 00 	movzbl 0x1dc(%rax),%eax
  403958:	0f b6 c0             	movzbl %al,%eax
  40395b:	89 c2                	mov    %eax,%edx
  40395d:	be 5e f7 42 00       	mov    $0x42f75e,%esi
  403962:	bf 04 00 00 00       	mov    $0x4,%edi
  403967:	b8 00 00 00 00       	mov    $0x0,%eax
  40396c:	e8 4b b3 02 00       	call   42ecbc <_Z10DebugPrintiPKcz>
  403971:	c7 45 fc 00 00 00 00 	movl   $0x0,-0x4(%rbp)
  403978:	eb 74                	jmp    4039ee <_Z15PrintParamToLogP15tageDaemonParam+0x1c5>
  40397a:	8b 45 fc             	mov    -0x4(%rbp),%eax
  40397d:	48 98                	cltq   
  40397f:	48 83 c0 01          	add    $0x1,%rax
  403983:	48 c1 e0 06          	shl    $0x6,%rax
  403987:	48 89 c2             	mov    %rax,%rdx
  40398a:	48 8b 45 e8          	mov    -0x18(%rbp),%rax
  40398e:	48 01 d0             	add    %rdx,%rax
  403991:	48 83 c0 05          	add    $0x5,%rax
  403995:	be 73 f7 42 00       	mov    $0x42f773,%esi
  40399a:	48 89 c7             	mov    %rax,%rdi
  40399d:	e8 ce f1 ff ff       	call   402b70 <strcmp@plt>
  4039a2:	85 c0                	test   %eax,%eax
  4039a4:	74 44                	je     4039ea <_Z15PrintParamToLogP15tageDaemonParam+0x1c1>
  4039a6:	8b 05 44 7c 23 00    	mov    0x237c44(%rip),%eax        # 63b5f0 <DebugLevel>
  4039ac:	83 e0 04             	and    $0x4,%eax
  4039af:	85 c0                	test   %eax,%eax
  4039b1:	74 37                	je     4039ea <_Z15PrintParamToLogP15tageDaemonParam+0x1c1>
  4039b3:	8b 45 fc             	mov    -0x4(%rbp),%eax
  4039b6:	48 98                	cltq   
  4039b8:	48 83 c0 01          	add    $0x1,%rax
  4039bc:	48 c1 e0 06          	shl    $0x6,%rax
  4039c0:	48 89 c2             	mov    %rax,%rdx
  4039c3:	48 8b 45 e8          	mov    -0x18(%rbp),%rax
  4039c7:	48 01 d0             	add    %rdx,%rax
  4039ca:	48 8d 50 05          	lea    0x5(%rax),%rdx
  4039ce:	8b 45 fc             	mov    -0x4(%rbp),%eax
  4039d1:	48 89 d1             	mov    %rdx,%rcx
  4039d4:	89 c2                	mov    %eax,%edx
  4039d6:	be 7b f7 42 00       	mov    $0x42f77b,%esi
  4039db:	bf 04 00 00 00       	mov    $0x4,%edi
  4039e0:	b8 00 00 00 00       	mov    $0x0,%eax
  4039e5:	e8 d2 b2 02 00       	call   42ecbc <_Z10DebugPrintiPKcz>
  4039ea:	83 45 fc 01          	addl   $0x1,-0x4(%rbp)
  4039ee:	83 7d fc 04          	cmpl   $0x4,-0x4(%rbp)
  4039f2:	7e 86                	jle    40397a <_Z15PrintParamToLogP15tageDaemonParam+0x151>
  4039f4:	8b 05 f6 7b 23 00    	mov    0x237bf6(%rip),%eax        # 63b5f0 <DebugLevel>
  4039fa:	83 e0 04             	and    $0x4,%eax
  4039fd:	85 c0                	test   %eax,%eax
  4039ff:	74 1f                	je     403a20 <_Z15PrintParamToLogP15tageDaemonParam+0x1f7>
  403a01:	48 8b 45 e8          	mov    -0x18(%rbp),%rax
  403a05:	48 83 c0 05          	add    $0x5,%rax
  403a09:	48 89 c2             	mov    %rax,%rdx
  403a0c:	be 95 f7 42 00       	mov    $0x42f795,%esi
  403a11:	bf 04 00 00 00       	mov    $0x4,%edi
  403a16:	b8 00 00 00 00       	mov    $0x0,%eax
  403a1b:	e8 9c b2 02 00       	call   42ecbc <_Z10DebugPrintiPKcz>
  403a20:	8b 05 ca 7b 23 00    	mov    0x237bca(%rip),%eax        # 63b5f0 <DebugLevel>
  403a26:	83 e0 04             	and    $0x4,%eax
  403a29:	85 c0                	test   %eax,%eax
  403a2b:	74 20                	je     403a4d <_Z15PrintParamToLogP15tageDaemonParam+0x224>
  403a2d:	48 8b 45 e8          	mov    -0x18(%rbp),%rax
  403a31:	8b 80 e0 01 00 00    	mov    0x1e0(%rax),%eax
  403a37:	89 c2                	mov    %eax,%edx
  403a39:	be a5 f7 42 00       	mov    $0x42f7a5,%esi
  403a3e:	bf 04 00 00 00       	mov    $0x4,%edi
  403a43:	b8 00 00 00 00       	mov    $0x0,%eax
  403a48:	e8 6f b2 02 00       	call   42ecbc <_Z10DebugPrintiPKcz>
  403a4d:	8b 05 9d 7b 23 00    	mov    0x237b9d(%rip),%eax        # 63b5f0 <DebugLevel>
  403a53:	83 e0 04             	and    $0x4,%eax
  403a56:	85 c0                	test   %eax,%eax
  403a58:	74 20                	je     403a7a <_Z15PrintParamToLogP15tageDaemonParam+0x251>
  403a5a:	48 8b 45 e8          	mov    -0x18(%rbp),%rax
  403a5e:	8b 80 e4 01 00 00    	mov    0x1e4(%rax),%eax
  403a64:	89 c2                	mov    %eax,%edx
  403a66:	be c0 f7 42 00       	mov    $0x42f7c0,%esi
  403a6b:	bf 04 00 00 00       	mov    $0x4,%edi
  403a70:	b8 00 00 00 00       	mov    $0x0,%eax
  403a75:	e8 42 b2 02 00       	call   42ecbc <_Z10DebugPrintiPKcz>
  403a7a:	c9                   	leave  
  403a7b:	c3                   	ret    

0000000000403a7c <_Z11ReadMainIniP15tageDaemonParam>:
  403a7c:	55                   	push   %rbp
  403a7d:	48 89 e5             	mov    %rsp,%rbp
  403a80:	48 81 ec c0 00 00 00 	sub    $0xc0,%rsp
  403a87:	48 89 bd 48 ff ff ff 	mov    %rdi,-0xb8(%rbp)
  403a8e:	64 48 8b 04 25 28 00 	mov    %fs:0x28,%rax
  403a95:	00 00 
  403a97:	48 89 45 f8          	mov    %rax,-0x8(%rbp)
  403a9b:	31 c0                	xor    %eax,%eax
  403a9d:	48 8d b5 70 ff ff ff 	lea    -0x90(%rbp),%rsi
  403aa4:	b8 00 00 00 00       	mov    $0x0,%eax
  403aa9:	ba 08 00 00 00       	mov    $0x8,%edx
  403aae:	48 89 f7             	mov    %rsi,%rdi
  403ab1:	48 89 d1             	mov    %rdx,%rcx
  403ab4:	f3 48 ab             	rep stos %rax,%es:(%rdi)
  403ab7:	48 8d 75 b0          	lea    -0x50(%rbp),%rsi
  403abb:	b8 00 00 00 00       	mov    $0x0,%eax
  403ac0:	ba 08 00 00 00       	mov    $0x8,%edx
  403ac5:	48 89 f7             	mov    %rsi,%rdi
  403ac8:	48 89 d1             	mov    %rdx,%rcx
  403acb:	f3 48 ab             	rep stos %rax,%es:(%rdi)
  403ace:	be 10 f6 42 00       	mov    $0x42f610,%esi
  403ad3:	bf d5 f7 42 00       	mov    $0x42f7d5,%edi
  403ad8:	e8 73 ef ff ff       	call   402a50 <fopen@plt>
  403add:	48 89 85 68 ff ff ff 	mov    %rax,-0x98(%rbp)
  403ae4:	48 83 bd 68 ff ff ff 	cmpq   $0x0,-0x98(%rbp)
  403aeb:	00 
  403aec:	75 2b                	jne    403b19 <_Z11ReadMainIniP15tageDaemonParam+0x9d>
  403aee:	8b 05 fc 7a 23 00    	mov    0x237afc(%rip),%eax        # 63b5f0 <DebugLevel>
  403af4:	83 e0 01             	and    $0x1,%eax
  403af7:	85 c0                	test   %eax,%eax
  403af9:	74 19                	je     403b14 <_Z11ReadMainIniP15tageDaemonParam+0x98>
  403afb:	ba d5 f7 42 00       	mov    $0x42f7d5,%edx
  403b00:	be e8 f7 42 00       	mov    $0x42f7e8,%esi
  403b05:	bf 01 00 00 00       	mov    $0x1,%edi
  403b0a:	b8 00 00 00 00       	mov    $0x0,%eax
  403b0f:	e8 68 ac 02 00       	call   42e77c <_Z10ErrorPrintiPKcz>
  403b14:	e9 71 05 00 00       	jmp    40408a <_Z11ReadMainIniP15tageDaemonParam+0x60e>
  403b19:	8b 05 d1 7a 23 00    	mov    0x237ad1(%rip),%eax        # 63b5f0 <DebugLevel>
  403b1f:	83 e0 01             	and    $0x1,%eax
  403b22:	85 c0                	test   %eax,%eax
  403b24:	74 19                	je     403b3f <_Z11ReadMainIniP15tageDaemonParam+0xc3>
  403b26:	ba d5 f7 42 00       	mov    $0x42f7d5,%edx
  403b2b:	be 1f f8 42 00       	mov    $0x42f81f,%esi
  403b30:	bf 01 00 00 00       	mov    $0x1,%edi
  403b35:	b8 00 00 00 00       	mov    $0x0,%eax
  403b3a:	e8 7d b1 02 00       	call   42ecbc <_Z10DebugPrintiPKcz>
  403b3f:	48 8d 95 70 ff ff ff 	lea    -0x90(%rbp),%rdx
  403b46:	48 8b 85 68 ff ff ff 	mov    -0x98(%rbp),%rax
  403b4d:	be 51 f6 42 00       	mov    $0x42f651,%esi
  403b52:	48 89 c7             	mov    %rax,%rdi
  403b55:	b8 00 00 00 00       	mov    $0x0,%eax
  403b5a:	e8 e1 f2 ff ff       	call   402e40 <fscanf@plt>
  403b5f:	48 8d 85 70 ff ff ff 	lea    -0x90(%rbp),%rax
  403b66:	be 2f f8 42 00       	mov    $0x42f82f,%esi
  403b6b:	48 89 c7             	mov    %rax,%rdi
  403b6e:	e8 fd ef ff ff       	call   402b70 <strcmp@plt>
  403b73:	85 c0                	test   %eax,%eax
  403b75:	74 30                	je     403ba7 <_Z11ReadMainIniP15tageDaemonParam+0x12b>
  403b77:	8b 05 73 7a 23 00    	mov    0x237a73(%rip),%eax        # 63b5f0 <DebugLevel>
  403b7d:	83 e0 01             	and    $0x1,%eax
  403b80:	85 c0                	test   %eax,%eax
  403b82:	74 1e                	je     403ba2 <_Z11ReadMainIniP15tageDaemonParam+0x126>
  403b84:	48 8d 85 70 ff ff ff 	lea    -0x90(%rbp),%rax
  403b8b:	48 89 c2             	mov    %rax,%rdx
  403b8e:	be 40 f8 42 00       	mov    $0x42f840,%esi
  403b93:	bf 01 00 00 00       	mov    $0x1,%edi
  403b98:	b8 00 00 00 00       	mov    $0x0,%eax
  403b9d:	e8 da ab 02 00       	call   42e77c <_Z10ErrorPrintiPKcz>
  403ba2:	e9 e3 04 00 00       	jmp    40408a <_Z11ReadMainIniP15tageDaemonParam+0x60e>
  403ba7:	48 8d 8d 5c ff ff ff 	lea    -0xa4(%rbp),%rcx
  403bae:	48 8d 95 70 ff ff ff 	lea    -0x90(%rbp),%rdx
  403bb5:	48 8b 85 68 ff ff ff 	mov    -0x98(%rbp),%rax
  403bbc:	be 6d f8 42 00       	mov    $0x42f86d,%esi
  403bc1:	48 89 c7             	mov    %rax,%rdi
  403bc4:	b8 00 00 00 00       	mov    $0x0,%eax
  403bc9:	e8 72 f2 ff ff       	call   402e40 <fscanf@plt>
  403bce:	48 8d 85 70 ff ff ff 	lea    -0x90(%rbp),%rax
  403bd5:	be 73 f8 42 00       	mov    $0x42f873,%esi
  403bda:	48 89 c7             	mov    %rax,%rdi
  403bdd:	e8 8e ef ff ff       	call   402b70 <strcmp@plt>
  403be2:	85 c0                	test   %eax,%eax
  403be4:	75 0c                	jne    403bf2 <_Z11ReadMainIniP15tageDaemonParam+0x176>
  403be6:	8b 85 5c ff ff ff    	mov    -0xa4(%rbp),%eax
  403bec:	89 05 fe 79 23 00    	mov    %eax,0x2379fe(%rip)        # 63b5f0 <DebugLevel>
  403bf2:	e9 1d 02 00 00       	jmp    403e14 <_Z11ReadMainIniP15tageDaemonParam+0x398>
  403bf7:	48 8d 8d 5c ff ff ff 	lea    -0xa4(%rbp),%rcx
  403bfe:	48 8d 95 70 ff ff ff 	lea    -0x90(%rbp),%rdx
  403c05:	48 8b 85 68 ff ff ff 	mov    -0x98(%rbp),%rax
  403c0c:	be 83 f8 42 00       	mov    $0x42f883,%esi
  403c11:	48 89 c7             	mov    %rax,%rdi
  403c14:	b8 00 00 00 00       	mov    $0x0,%eax
  403c19:	e8 22 f2 ff ff       	call   402e40 <fscanf@plt>
  403c1e:	8b 85 5c ff ff ff    	mov    -0xa4(%rbp),%eax
  403c24:	83 f8 ff             	cmp    $0xffffffff,%eax
  403c27:	75 05                	jne    403c2e <_Z11ReadMainIniP15tageDaemonParam+0x1b2>
  403c29:	e9 e6 01 00 00       	jmp    403e14 <_Z11ReadMainIniP15tageDaemonParam+0x398>
  403c2e:	48 8d 85 70 ff ff ff 	lea    -0x90(%rbp),%rax
  403c35:	be 89 f8 42 00       	mov    $0x42f889,%esi
  403c3a:	48 89 c7             	mov    %rax,%rdi
  403c3d:	e8 2e ef ff ff       	call   402b70 <strcmp@plt>
  403c42:	85 c0                	test   %eax,%eax
  403c44:	75 11                	jne    403c57 <_Z11ReadMainIniP15tageDaemonParam+0x1db>
  403c46:	8b 85 5c ff ff ff    	mov    -0xa4(%rbp),%eax
  403c4c:	88 05 a2 79 23 00    	mov    %al,0x2379a2(%rip)        # 63b5f4 <ShowDebugPosition>
  403c52:	e9 bd 01 00 00       	jmp    403e14 <_Z11ReadMainIniP15tageDaemonParam+0x398>
  403c57:	48 8d 85 70 ff ff ff 	lea    -0x90(%rbp),%rax
  403c5e:	be 9b f8 42 00       	mov    $0x42f89b,%esi
  403c63:	48 89 c7             	mov    %rax,%rdi
  403c66:	e8 05 ef ff ff       	call   402b70 <strcmp@plt>
  403c6b:	85 c0                	test   %eax,%eax
  403c6d:	75 18                	jne    403c87 <_Z11ReadMainIniP15tageDaemonParam+0x20b>
  403c6f:	8b 95 5c ff ff ff    	mov    -0xa4(%rbp),%edx
  403c75:	48 8b 85 48 ff ff ff 	mov    -0xb8(%rbp),%rax
  403c7c:	89 90 b8 01 00 00    	mov    %edx,0x1b8(%rax)
  403c82:	e9 8d 01 00 00       	jmp    403e14 <_Z11ReadMainIniP15tageDaemonParam+0x398>
  403c87:	48 8d 85 70 ff ff ff 	lea    -0x90(%rbp),%rax
  403c8e:	be a4 f8 42 00       	mov    $0x42f8a4,%esi
  403c93:	48 89 c7             	mov    %rax,%rdi
  403c96:	e8 d5 ee ff ff       	call   402b70 <strcmp@plt>
  403c9b:	85 c0                	test   %eax,%eax
  403c9d:	75 1c                	jne    403cbb <_Z11ReadMainIniP15tageDaemonParam+0x23f>
  403c9f:	8b 85 5c ff ff ff    	mov    -0xa4(%rbp),%eax
  403ca5:	48 63 d0             	movslq %eax,%rdx
  403ca8:	48 8b 85 48 ff ff ff 	mov    -0xb8(%rbp),%rax
  403caf:	48 89 90 c0 01 00 00 	mov    %rdx,0x1c0(%rax)
  403cb6:	e9 59 01 00 00       	jmp    403e14 <_Z11ReadMainIniP15tageDaemonParam+0x398>
  403cbb:	48 8d 85 70 ff ff ff 	lea    -0x90(%rbp),%rax
  403cc2:	be b0 f8 42 00       	mov    $0x42f8b0,%esi
  403cc7:	48 89 c7             	mov    %rax,%rdi
  403cca:	e8 a1 ee ff ff       	call   402b70 <strcmp@plt>
  403ccf:	85 c0                	test   %eax,%eax
  403cd1:	75 1a                	jne    403ced <_Z11ReadMainIniP15tageDaemonParam+0x271>
  403cd3:	8b 85 5c ff ff ff    	mov    -0xa4(%rbp),%eax
  403cd9:	89 c2                	mov    %eax,%edx
  403cdb:	48 8b 85 48 ff ff ff 	mov    -0xb8(%rbp),%rax
  403ce2:	88 90 c9 01 00 00    	mov    %dl,0x1c9(%rax)
  403ce8:	e9 27 01 00 00       	jmp    403e14 <_Z11ReadMainIniP15tageDaemonParam+0x398>
  403ced:	48 8d 85 70 ff ff ff 	lea    -0x90(%rbp),%rax
  403cf4:	be bb f8 42 00       	mov    $0x42f8bb,%esi
  403cf9:	48 89 c7             	mov    %rax,%rdi
  403cfc:	e8 6f ee ff ff       	call   402b70 <strcmp@plt>
  403d01:	85 c0                	test   %eax,%eax
  403d03:	75 1d                	jne    403d22 <_Z11ReadMainIniP15tageDaemonParam+0x2a6>
  403d05:	8b 85 5c ff ff ff    	mov    -0xa4(%rbp),%eax
  403d0b:	85 c0                	test   %eax,%eax
  403d0d:	0f 95 c2             	setne  %dl
  403d10:	48 8b 85 48 ff ff ff 	mov    -0xb8(%rbp),%rax
  403d17:	88 90 da 01 00 00    	mov    %dl,0x1da(%rax)
  403d1d:	e9 f2 00 00 00       	jmp    403e14 <_Z11ReadMainIniP15tageDaemonParam+0x398>
  403d22:	48 8d 85 70 ff ff ff 	lea    -0x90(%rbp),%rax
  403d29:	be ca f8 42 00       	mov    $0x42f8ca,%esi
  403d2e:	48 89 c7             	mov    %rax,%rdi
  403d31:	e8 3a ee ff ff       	call   402b70 <strcmp@plt>
  403d36:	85 c0                	test   %eax,%eax
  403d38:	75 1d                	jne    403d57 <_Z11ReadMainIniP15tageDaemonParam+0x2db>
  403d3a:	8b 85 5c ff ff ff    	mov    -0xa4(%rbp),%eax
  403d40:	85 c0                	test   %eax,%eax
  403d42:	0f 95 c2             	setne  %dl
  403d45:	48 8b 85 48 ff ff ff 	mov    -0xb8(%rbp),%rax
  403d4c:	88 90 db 01 00 00    	mov    %dl,0x1db(%rax)
  403d52:	e9 bd 00 00 00       	jmp    403e14 <_Z11ReadMainIniP15tageDaemonParam+0x398>
  403d57:	48 8d 85 70 ff ff ff 	lea    -0x90(%rbp),%rax
  403d5e:	be d8 f8 42 00       	mov    $0x42f8d8,%esi
  403d63:	48 89 c7             	mov    %rax,%rdi
  403d66:	e8 05 ee ff ff       	call   402b70 <strcmp@plt>
  403d6b:	85 c0                	test   %eax,%eax
  403d6d:	75 1d                	jne    403d8c <_Z11ReadMainIniP15tageDaemonParam+0x310>
  403d6f:	8b 85 5c ff ff ff    	mov    -0xa4(%rbp),%eax
  403d75:	85 c0                	test   %eax,%eax
  403d77:	0f 95 c2             	setne  %dl
  403d7a:	48 8b 85 48 ff ff ff 	mov    -0xb8(%rbp),%rax
  403d81:	88 90 dc 01 00 00    	mov    %dl,0x1dc(%rax)
  403d87:	e9 88 00 00 00       	jmp    403e14 <_Z11ReadMainIniP15tageDaemonParam+0x398>
  403d8c:	48 8d 85 70 ff ff ff 	lea    -0x90(%rbp),%rax
  403d93:	be e9 f8 42 00       	mov    $0x42f8e9,%esi
  403d98:	48 89 c7             	mov    %rax,%rdi
  403d9b:	e8 d0 ed ff ff       	call   402b70 <strcmp@plt>
  403da0:	85 c0                	test   %eax,%eax
  403da2:	75 17                	jne    403dbb <_Z11ReadMainIniP15tageDaemonParam+0x33f>
  403da4:	8b 85 5c ff ff ff    	mov    -0xa4(%rbp),%eax
  403daa:	89 c2                	mov    %eax,%edx
  403dac:	48 8b 85 48 ff ff ff 	mov    -0xb8(%rbp),%rax
  403db3:	88 90 d8 01 00 00    	mov    %dl,0x1d8(%rax)
  403db9:	eb 59                	jmp    403e14 <_Z11ReadMainIniP15tageDaemonParam+0x398>
  403dbb:	48 8d 85 70 ff ff ff 	lea    -0x90(%rbp),%rax
  403dc2:	be f7 f8 42 00       	mov    $0x42f8f7,%esi
  403dc7:	48 89 c7             	mov    %rax,%rdi
  403dca:	e8 a1 ed ff ff       	call   402b70 <strcmp@plt>
  403dcf:	85 c0                	test   %eax,%eax
  403dd1:	75 15                	jne    403de8 <_Z11ReadMainIniP15tageDaemonParam+0x36c>
  403dd3:	8b 95 5c ff ff ff    	mov    -0xa4(%rbp),%edx
  403dd9:	48 8b 85 48 ff ff ff 	mov    -0xb8(%rbp),%rax
  403de0:	89 90 e0 01 00 00    	mov    %edx,0x1e0(%rax)
  403de6:	eb 2c                	jmp    403e14 <_Z11ReadMainIniP15tageDaemonParam+0x398>
  403de8:	48 8d 85 70 ff ff ff 	lea    -0x90(%rbp),%rax
  403def:	be 0d f9 42 00       	mov    $0x42f90d,%esi
  403df4:	48 89 c7             	mov    %rax,%rdi
  403df7:	e8 74 ed ff ff       	call   402b70 <strcmp@plt>
  403dfc:	85 c0                	test   %eax,%eax
  403dfe:	75 14                	jne    403e14 <_Z11ReadMainIniP15tageDaemonParam+0x398>
  403e00:	8b 95 5c ff ff ff    	mov    -0xa4(%rbp),%edx
  403e06:	48 8b 85 48 ff ff ff 	mov    -0xb8(%rbp),%rax
  403e0d:	89 90 e4 01 00 00    	mov    %edx,0x1e4(%rax)
  403e13:	90                   	nop
  403e14:	48 8d 85 70 ff ff ff 	lea    -0x90(%rbp),%rax
  403e1b:	be 1d f9 42 00       	mov    $0x42f91d,%esi
  403e20:	48 89 c7             	mov    %rax,%rdi
  403e23:	e8 48 ed ff ff       	call   402b70 <strcmp@plt>
  403e28:	85 c0                	test   %eax,%eax
  403e2a:	0f 85 c7 fd ff ff    	jne    403bf7 <_Z11ReadMainIniP15tageDaemonParam+0x17b>
  403e30:	c7 85 60 ff ff ff 00 	movl   $0x0,-0xa0(%rbp)
  403e37:	00 00 00 
  403e3a:	c7 85 64 ff ff ff 00 	movl   $0x0,-0x9c(%rbp)
  403e41:	00 00 00 
  403e44:	e9 f9 01 00 00       	jmp    404042 <_Z11ReadMainIniP15tageDaemonParam+0x5c6>
  403e49:	48 8d 4d b0          	lea    -0x50(%rbp),%rcx
  403e4d:	48 8d 95 70 ff ff ff 	lea    -0x90(%rbp),%rdx
  403e54:	48 8b 85 68 ff ff ff 	mov    -0x98(%rbp),%rax
  403e5b:	be 26 f9 42 00       	mov    $0x42f926,%esi
  403e60:	48 89 c7             	mov    %rax,%rdi
  403e63:	b8 00 00 00 00       	mov    $0x0,%eax
  403e68:	e8 d3 ef ff ff       	call   402e40 <fscanf@plt>
  403e6d:	48 8d 45 b0          	lea    -0x50(%rbp),%rax
  403e71:	be 73 f7 42 00       	mov    $0x42f773,%esi
  403e76:	48 89 c7             	mov    %rax,%rdi
  403e79:	e8 f2 ec ff ff       	call   402b70 <strcmp@plt>
  403e7e:	85 c0                	test   %eax,%eax
  403e80:	75 05                	jne    403e87 <_Z11ReadMainIniP15tageDaemonParam+0x40b>
  403e82:	e9 bb 01 00 00       	jmp    404042 <_Z11ReadMainIniP15tageDaemonParam+0x5c6>
  403e87:	48 8d 85 70 ff ff ff 	lea    -0x90(%rbp),%rax
  403e8e:	be 2c f9 42 00       	mov    $0x42f92c,%esi
  403e93:	48 89 c7             	mov    %rax,%rdi
  403e96:	e8 65 e8 ff ff       	call   402700 <strstr@plt>
  403e9b:	48 85 c0             	test   %rax,%rax
  403e9e:	74 5c                	je     403efc <_Z11ReadMainIniP15tageDaemonParam+0x480>
  403ea0:	8b 85 60 ff ff ff    	mov    -0xa0(%rbp),%eax
  403ea6:	48 98                	cltq   
  403ea8:	48 83 c0 01          	add    $0x1,%rax
  403eac:	48 c1 e0 06          	shl    $0x6,%rax
  403eb0:	48 89 c2             	mov    %rax,%rdx
  403eb3:	48 8b 85 48 ff ff ff 	mov    -0xb8(%rbp),%rax
  403eba:	48 01 d0             	add    %rdx,%rax
  403ebd:	48 8d 50 05          	lea    0x5(%rax),%rdx
  403ec1:	48 8d 45 b0          	lea    -0x50(%rbp),%rax
  403ec5:	48 89 c6             	mov    %rax,%rsi
  403ec8:	48 89 d7             	mov    %rdx,%rdi
  403ecb:	e8 c0 ea ff ff       	call   402990 <strcpy@plt>
  403ed0:	48 8b 85 48 ff ff ff 	mov    -0xb8(%rbp),%rax
  403ed7:	0f b6 80 b7 01 00 00 	movzbl 0x1b7(%rax),%eax
  403ede:	83 c8 01             	or     $0x1,%eax
  403ee1:	89 c2                	mov    %eax,%edx
  403ee3:	48 8b 85 48 ff ff ff 	mov    -0xb8(%rbp),%rax
  403eea:	88 90 b7 01 00 00    	mov    %dl,0x1b7(%rax)
  403ef0:	83 85 60 ff ff ff 01 	addl   $0x1,-0xa0(%rbp)
  403ef7:	e9 46 01 00 00       	jmp    404042 <_Z11ReadMainIniP15tageDaemonParam+0x5c6>
  403efc:	48 8d 85 70 ff ff ff 	lea    -0x90(%rbp),%rax
  403f03:	be 37 f9 42 00       	mov    $0x42f937,%esi
  403f08:	48 89 c7             	mov    %rax,%rdi
  403f0b:	e8 60 ec ff ff       	call   402b70 <strcmp@plt>
  403f10:	85 c0                	test   %eax,%eax
  403f12:	75 3f                	jne    403f53 <_Z11ReadMainIniP15tageDaemonParam+0x4d7>
  403f14:	48 8b 85 48 ff ff ff 	mov    -0xb8(%rbp),%rax
  403f1b:	48 8d 50 05          	lea    0x5(%rax),%rdx
  403f1f:	48 8d 45 b0          	lea    -0x50(%rbp),%rax
  403f23:	48 89 c6             	mov    %rax,%rsi
  403f26:	48 89 d7             	mov    %rdx,%rdi
  403f29:	e8 62 ea ff ff       	call   402990 <strcpy@plt>
  403f2e:	48 8b 85 48 ff ff ff 	mov    -0xb8(%rbp),%rax
  403f35:	0f b6 80 b7 01 00 00 	movzbl 0x1b7(%rax),%eax
  403f3c:	83 c8 02             	or     $0x2,%eax
  403f3f:	89 c2                	mov    %eax,%edx
  403f41:	48 8b 85 48 ff ff ff 	mov    -0xb8(%rbp),%rax
  403f48:	88 90 b7 01 00 00    	mov    %dl,0x1b7(%rax)
  403f4e:	e9 ef 00 00 00       	jmp    404042 <_Z11ReadMainIniP15tageDaemonParam+0x5c6>
  403f53:	48 8d 85 70 ff ff ff 	lea    -0x90(%rbp),%rax
  403f5a:	be 42 f9 42 00       	mov    $0x42f942,%esi
  403f5f:	48 89 c7             	mov    %rax,%rdi
  403f62:	e8 99 e7 ff ff       	call   402700 <strstr@plt>
  403f67:	48 85 c0             	test   %rax,%rax
  403f6a:	0f 84 d2 00 00 00    	je     404042 <_Z11ReadMainIniP15tageDaemonParam+0x5c6>
  403f70:	48 8d 45 b0          	lea    -0x50(%rbp),%rax
  403f74:	48 89 c7             	mov    %rax,%rdi
  403f77:	e8 f4 e7 ff ff       	call   402770 <strlen@plt>
  403f7c:	48 83 f8 04          	cmp    $0x4,%rax
  403f80:	76 2d                	jbe    403faf <_Z11ReadMainIniP15tageDaemonParam+0x533>
  403f82:	8b 05 68 76 23 00    	mov    0x237668(%rip),%eax        # 63b5f0 <DebugLevel>
  403f88:	83 e0 01             	and    $0x1,%eax
  403f8b:	85 c0                	test   %eax,%eax
  403f8d:	74 1b                	je     403faa <_Z11ReadMainIniP15tageDaemonParam+0x52e>
  403f8f:	48 8d 45 b0          	lea    -0x50(%rbp),%rax
  403f93:	48 89 c2             	mov    %rax,%rdx
  403f96:	be 50 f9 42 00       	mov    $0x42f950,%esi
  403f9b:	bf 01 00 00 00       	mov    $0x1,%edi
  403fa0:	b8 00 00 00 00       	mov    $0x0,%eax
  403fa5:	e8 12 ad 02 00       	call   42ecbc <_Z10DebugPrintiPKcz>
  403faa:	e9 93 00 00 00       	jmp    404042 <_Z11ReadMainIniP15tageDaemonParam+0x5c6>
  403faf:	8b 85 64 ff ff ff    	mov    -0x9c(%rbp),%eax
  403fb5:	48 63 d0             	movslq %eax,%rdx
  403fb8:	48 89 d0             	mov    %rdx,%rax
  403fbb:	48 c1 e0 02          	shl    $0x2,%rax
  403fbf:	48 01 d0             	add    %rdx,%rax
  403fc2:	48 8d 90 80 01 00 00 	lea    0x180(%rax),%rdx
  403fc9:	48 8b 85 48 ff ff ff 	mov    -0xb8(%rbp),%rax
  403fd0:	48 01 d0             	add    %rdx,%rax
  403fd3:	48 8d 50 05          	lea    0x5(%rax),%rdx
  403fd7:	48 8d 45 b0          	lea    -0x50(%rbp),%rax
  403fdb:	48 89 c6             	mov    %rax,%rsi
  403fde:	48 89 d7             	mov    %rdx,%rdi
  403fe1:	e8 aa e9 ff ff       	call   402990 <strcpy@plt>
  403fe6:	8b 05 04 76 23 00    	mov    0x237604(%rip),%eax        # 63b5f0 <DebugLevel>
  403fec:	83 e0 01             	and    $0x1,%eax
  403fef:	85 c0                	test   %eax,%eax
  403ff1:	74 47                	je     40403a <_Z11ReadMainIniP15tageDaemonParam+0x5be>
  403ff3:	8b 85 64 ff ff ff    	mov    -0x9c(%rbp),%eax
  403ff9:	48 63 d0             	movslq %eax,%rdx
  403ffc:	48 89 d0             	mov    %rdx,%rax
  403fff:	48 c1 e0 02          	shl    $0x2,%rax
  404003:	48 01 d0             	add    %rdx,%rax
  404006:	48 8d 90 80 01 00 00 	lea    0x180(%rax),%rdx
  40400d:	48 8b 85 48 ff ff ff 	mov    -0xb8(%rbp),%rax
  404014:	48 01 d0             	add    %rdx,%rax
  404017:	48 8d 50 05          	lea    0x5(%rax),%rdx
  40401b:	8b 85 64 ff ff ff    	mov    -0x9c(%rbp),%eax
  404021:	48 89 d1             	mov    %rdx,%rcx
  404024:	89 c2                	mov    %eax,%edx
  404026:	be 90 f9 42 00       	mov    $0x42f990,%esi
  40402b:	bf 01 00 00 00       	mov    $0x1,%edi
  404030:	b8 00 00 00 00       	mov    $0x0,%eax
  404035:	e8 82 ac 02 00       	call   42ecbc <_Z10DebugPrintiPKcz>
  40403a:	83 85 64 ff ff ff 01 	addl   $0x1,-0x9c(%rbp)
  404041:	90                   	nop
  404042:	48 8d 85 70 ff ff ff 	lea    -0x90(%rbp),%rax
  404049:	ba 07 00 00 00       	mov    $0x7,%edx
  40404e:	be be f9 42 00       	mov    $0x42f9be,%esi
  404053:	48 89 c7             	mov    %rax,%rdi
  404056:	e8 35 e7 ff ff       	call   402790 <strncmp@plt>
  40405b:	85 c0                	test   %eax,%eax
  40405d:	74 1c                	je     40407b <_Z11ReadMainIniP15tageDaemonParam+0x5ff>
  40405f:	48 8d 85 70 ff ff ff 	lea    -0x90(%rbp),%rax
  404066:	be c6 f9 42 00       	mov    $0x42f9c6,%esi
  40406b:	48 89 c7             	mov    %rax,%rdi
  40406e:	e8 fd ea ff ff       	call   402b70 <strcmp@plt>
  404073:	85 c0                	test   %eax,%eax
  404075:	0f 85 ce fd ff ff    	jne    403e49 <_Z11ReadMainIniP15tageDaemonParam+0x3cd>
  40407b:	48 8b 85 68 ff ff ff 	mov    -0x98(%rbp),%rax
  404082:	48 89 c7             	mov    %rax,%rdi
  404085:	e8 56 e9 ff ff       	call   4029e0 <fclose@plt>
  40408a:	48 8b 45 f8          	mov    -0x8(%rbp),%rax
  40408e:	64 48 33 04 25 28 00 	xor    %fs:0x28,%rax
  404095:	00 00 
  404097:	74 05                	je     40409e <_Z11ReadMainIniP15tageDaemonParam+0x622>
  404099:	e8 82 e9 ff ff       	call   402a20 <__stack_chk_fail@plt>
  40409e:	c9                   	leave  
  40409f:	c3                   	ret    

00000000004040a0 <_Z14RemoveOldDebugv>:
  4040a0:	55                   	push   %rbp
  4040a1:	48 89 e5             	mov    %rsp,%rbp
  4040a4:	48 83 ec 50          	sub    $0x50,%rsp
  4040a8:	64 48 8b 04 25 28 00 	mov    %fs:0x28,%rax
  4040af:	00 00 
  4040b1:	48 89 45 f8          	mov    %rax,-0x8(%rbp)
  4040b5:	31 c0                	xor    %eax,%eax
  4040b7:	48 8d 75 b0          	lea    -0x50(%rbp),%rsi
  4040bb:	b8 00 00 00 00       	mov    $0x0,%eax
  4040c0:	ba 08 00 00 00       	mov    $0x8,%edx
  4040c5:	48 89 f7             	mov    %rsi,%rdi
  4040c8:	48 89 d1             	mov    %rdx,%rcx
  4040cb:	f3 48 ab             	rep stos %rax,%es:(%rdi)
  4040ce:	48 8d 45 b0          	lea    -0x50(%rbp),%rax
  4040d2:	b9 d2 f9 42 00       	mov    $0x42f9d2,%ecx
  4040d7:	ba e8 f5 42 00       	mov    $0x42f5e8,%edx
  4040dc:	be da f9 42 00       	mov    $0x42f9da,%esi
  4040e1:	48 89 c7             	mov    %rax,%rdi
  4040e4:	b8 00 00 00 00       	mov    $0x0,%eax
  4040e9:	e8 f2 e5 ff ff       	call   4026e0 <sprintf@plt>
  4040ee:	48 8d 45 b0          	lea    -0x50(%rbp),%rax
  4040f2:	48 89 c7             	mov    %rax,%rdi
  4040f5:	e8 06 e8 ff ff       	call   402900 <system@plt>
  4040fa:	85 c0                	test   %eax,%eax
  4040fc:	0f 95 c0             	setne  %al
  4040ff:	84 c0                	test   %al,%al
  404101:	74 23                	je     404126 <_Z14RemoveOldDebugv+0x86>
  404103:	8b 05 e7 74 23 00    	mov    0x2374e7(%rip),%eax        # 63b5f0 <DebugLevel>
  404109:	83 e0 01             	and    $0x1,%eax
  40410c:	85 c0                	test   %eax,%eax
  40410e:	74 37                	je     404147 <_Z14RemoveOldDebugv+0xa7>
  404110:	be e8 f9 42 00       	mov    $0x42f9e8,%esi
  404115:	bf 01 00 00 00       	mov    $0x1,%edi
  40411a:	b8 00 00 00 00       	mov    $0x0,%eax
  40411f:	e8 58 a6 02 00       	call   42e77c <_Z10ErrorPrintiPKcz>
  404124:	eb 21                	jmp    404147 <_Z14RemoveOldDebugv+0xa7>
  404126:	8b 05 c4 74 23 00    	mov    0x2374c4(%rip),%eax        # 63b5f0 <DebugLevel>
  40412c:	83 e0 01             	and    $0x1,%eax
  40412f:	85 c0                	test   %eax,%eax
  404131:	74 14                	je     404147 <_Z14RemoveOldDebugv+0xa7>
  404133:	be 10 fa 42 00       	mov    $0x42fa10,%esi
  404138:	bf 01 00 00 00       	mov    $0x1,%edi
  40413d:	b8 00 00 00 00       	mov    $0x0,%eax
  404142:	e8 75 ab 02 00       	call   42ecbc <_Z10DebugPrintiPKcz>
  404147:	48 8b 45 f8          	mov    -0x8(%rbp),%rax
  40414b:	64 48 33 04 25 28 00 	xor    %fs:0x28,%rax
  404152:	00 00 
  404154:	74 05                	je     40415b <_Z14RemoveOldDebugv+0xbb>
  404156:	e8 c5 e8 ff ff       	call   402a20 <__stack_chk_fail@plt>
  40415b:	c9                   	leave  
  40415c:	c3                   	ret    

000000000040415d <_Z13InitVarieblesP15tageDaemonParam>:
  40415d:	55                   	push   %rbp
  40415e:	48 89 e5             	mov    %rsp,%rbp
  404161:	53                   	push   %rbx
  404162:	48 83 ec 28          	sub    $0x28,%rsp
  404166:	48 89 7d d8          	mov    %rdi,-0x28(%rbp)
  40416a:	c7 05 7c 74 23 00 01 	movl   $0x1,0x23747c(%rip)        # 63b5f0 <DebugLevel>
  404171:	00 00 00 
  404174:	c6 05 79 74 23 00 00 	movb   $0x0,0x237479(%rip)        # 63b5f4 <ShowDebugPosition>
  40417b:	48 8b 45 d8          	mov    -0x28(%rbp),%rax
  40417f:	c6 00 00             	movb   $0x0,(%rax)
  404182:	48 8b 45 d8          	mov    -0x28(%rbp),%rax
  404186:	c6 40 01 00          	movb   $0x0,0x1(%rax)
  40418a:	48 8b 45 d8          	mov    -0x28(%rbp),%rax
  40418e:	c6 40 02 00          	movb   $0x0,0x2(%rax)
  404192:	48 8b 45 d8          	mov    -0x28(%rbp),%rax
  404196:	c6 40 03 00          	movb   $0x0,0x3(%rax)
  40419a:	48 8b 45 d8          	mov    -0x28(%rbp),%rax
  40419e:	c6 40 04 00          	movb   $0x0,0x4(%rax)
  4041a2:	48 8b 45 d8          	mov    -0x28(%rbp),%rax
  4041a6:	c6 80 b7 01 00 00 00 	movb   $0x0,0x1b7(%rax)
  4041ad:	48 8b 45 d8          	mov    -0x28(%rbp),%rax
  4041b1:	c6 80 c9 01 00 00 01 	movb   $0x1,0x1c9(%rax)
  4041b8:	48 8b 45 d8          	mov    -0x28(%rbp),%rax
  4041bc:	c7 80 bc 01 00 00 00 	movl   $0x0,0x1bc(%rax)
  4041c3:	00 00 00 
  4041c6:	48 8b 45 d8          	mov    -0x28(%rbp),%rax
  4041ca:	c6 80 c8 01 00 00 00 	movb   $0x0,0x1c8(%rax)
  4041d1:	48 8b 45 d8          	mov    -0x28(%rbp),%rax
  4041d5:	c7 80 b8 01 00 00 00 	movl   $0x0,0x1b8(%rax)
  4041dc:	00 00 00 
  4041df:	48 8b 45 d8          	mov    -0x28(%rbp),%rax
  4041e3:	c6 80 d9 01 00 00 00 	movb   $0x0,0x1d9(%rax)
  4041ea:	48 8b 45 d8          	mov    -0x28(%rbp),%rax
  4041ee:	c6 80 da 01 00 00 00 	movb   $0x0,0x1da(%rax)
  4041f5:	48 8b 45 d8          	mov    -0x28(%rbp),%rax
  4041f9:	c6 80 db 01 00 00 00 	movb   $0x0,0x1db(%rax)
  404200:	48 8b 45 d8          	mov    -0x28(%rbp),%rax
  404204:	c6 80 dc 01 00 00 00 	movb   $0x0,0x1dc(%rax)
  40420b:	48 8b 45 d8          	mov    -0x28(%rbp),%rax
  40420f:	c6 80 dd 01 00 00 00 	movb   $0x0,0x1dd(%rax)
  404216:	48 8b 45 d8          	mov    -0x28(%rbp),%rax
  40421a:	48 83 c0 05          	add    $0x5,%rax
  40421e:	48 b9 2f 64 65 76 2f 	movabs $0x706e692f7665642f,%rcx
  404225:	69 6e 70 
  404228:	48 89 08             	mov    %rcx,(%rax)
  40422b:	48 be 75 74 2f 75 69 	movabs $0x75706e69752f7475,%rsi
  404232:	6e 70 75 
  404235:	48 89 70 08          	mov    %rsi,0x8(%rax)
  404239:	66 c7 40 10 74 00    	movw   $0x74,0x10(%rax)
  40423f:	48 8b 45 d8          	mov    -0x28(%rbp),%rax
  404243:	c6 80 d8 01 00 00 00 	movb   $0x0,0x1d8(%rax)
  40424a:	48 8b 45 d8          	mov    -0x28(%rbp),%rax
  40424e:	c7 80 e0 01 00 00 00 	movl   $0x0,0x1e0(%rax)
  404255:	00 00 00 
  404258:	48 8b 45 d8          	mov    -0x28(%rbp),%rax
  40425c:	c7 80 e4 01 00 00 32 	movl   $0x32,0x1e4(%rax)
  404263:	00 00 00 
  404266:	c7 45 e8 00 00 00 00 	movl   $0x0,-0x18(%rbp)
  40426d:	eb 2c                	jmp    40429b <_Z13InitVarieblesP15tageDaemonParam+0x13e>
  40426f:	8b 45 e8             	mov    -0x18(%rbp),%eax
  404272:	48 98                	cltq   
  404274:	48 83 c0 01          	add    $0x1,%rax
  404278:	48 c1 e0 06          	shl    $0x6,%rax
  40427c:	48 89 c2             	mov    %rax,%rdx
  40427f:	48 8b 45 d8          	mov    -0x28(%rbp),%rax
  404283:	48 01 d0             	add    %rdx,%rax
  404286:	48 83 c0 05          	add    $0x5,%rax
  40428a:	48 bb 64 65 66 61 75 	movabs $0x746c7561666564,%rbx
  404291:	6c 74 00 
  404294:	48 89 18             	mov    %rbx,(%rax)
  404297:	83 45 e8 01          	addl   $0x1,-0x18(%rbp)
  40429b:	83 7d e8 04          	cmpl   $0x4,-0x18(%rbp)
  40429f:	7e ce                	jle    40426f <_Z13InitVarieblesP15tageDaemonParam+0x112>
  4042a1:	c7 45 ec 00 00 00 00 	movl   $0x0,-0x14(%rbp)
  4042a8:	eb 30                	jmp    4042da <_Z13InitVarieblesP15tageDaemonParam+0x17d>
  4042aa:	8b 45 ec             	mov    -0x14(%rbp),%eax
  4042ad:	48 63 d0             	movslq %eax,%rdx
  4042b0:	48 89 d0             	mov    %rdx,%rax
  4042b3:	48 c1 e0 02          	shl    $0x2,%rax
  4042b7:	48 01 d0             	add    %rdx,%rax
  4042ba:	48 8d 90 80 01 00 00 	lea    0x180(%rax),%rdx
  4042c1:	48 8b 45 d8          	mov    -0x28(%rbp),%rax
  4042c5:	48 01 d0             	add    %rdx,%rax
  4042c8:	48 83 c0 05          	add    $0x5,%rax
  4042cc:	c7 00 4e 55 4c 4c    	movl   $0x4c4c554e,(%rax)
  4042d2:	c6 40 04 00          	movb   $0x0,0x4(%rax)
  4042d6:	83 45 ec 01          	addl   $0x1,-0x14(%rbp)
  4042da:	83 7d ec 09          	cmpl   $0x9,-0x14(%rbp)
  4042de:	7e ca                	jle    4042aa <_Z13InitVarieblesP15tageDaemonParam+0x14d>
  4042e0:	e8 bb fd ff ff       	call   4040a0 <_Z14RemoveOldDebugv>
  4042e5:	e8 d2 07 00 00       	call   404abc <_Z16InitDebugLogPathv>
  4042ea:	48 83 c4 28          	add    $0x28,%rsp
  4042ee:	5b                   	pop    %rbx
  4042ef:	5d                   	pop    %rbp
  4042f0:	c3                   	ret    

00000000004042f1 <_Z22GetDistributionVersionv>:
  4042f1:	55                   	push   %rbp
  4042f2:	48 89 e5             	mov    %rsp,%rbp
  4042f5:	53                   	push   %rbx
  4042f6:	48 81 ec 78 03 00 00 	sub    $0x378,%rsp
  4042fd:	64 48 8b 04 25 28 00 	mov    %fs:0x28,%rax
  404304:	00 00 
  404306:	48 89 45 e8          	mov    %rax,-0x18(%rbp)
  40430a:	31 c0                	xor    %eax,%eax
  40430c:	48 8d b5 e0 fc ff ff 	lea    -0x320(%rbp),%rsi
  404313:	b8 00 00 00 00       	mov    $0x0,%eax
  404318:	ba 10 00 00 00       	mov    $0x10,%edx
  40431d:	48 89 f7             	mov    %rsi,%rdi
  404320:	48 89 d1             	mov    %rdx,%rcx
  404323:	f3 48 ab             	rep stos %rax,%es:(%rdi)
  404326:	48 8d b5 60 fd ff ff 	lea    -0x2a0(%rbp),%rsi
  40432d:	b8 00 00 00 00       	mov    $0x0,%eax
  404332:	ba 10 00 00 00       	mov    $0x10,%edx
  404337:	48 89 f7             	mov    %rsi,%rdi
  40433a:	48 89 d1             	mov    %rdx,%rcx
  40433d:	f3 48 ab             	rep stos %rax,%es:(%rdi)
  404340:	48 8d b5 a0 fc ff ff 	lea    -0x360(%rbp),%rsi
  404347:	b8 00 00 00 00       	mov    $0x0,%eax
  40434c:	ba 08 00 00 00       	mov    $0x8,%edx
  404351:	48 89 f7             	mov    %rsi,%rdi
  404354:	48 89 d1             	mov    %rdx,%rcx
  404357:	f3 48 ab             	rep stos %rax,%es:(%rdi)
  40435a:	48 8d 85 a0 fc ff ff 	lea    -0x360(%rbp),%rax
  404361:	ba e8 f5 42 00       	mov    $0x42f5e8,%edx
  404366:	be ed f5 42 00       	mov    $0x42f5ed,%esi
  40436b:	48 89 c7             	mov    %rax,%rdi
  40436e:	b8 00 00 00 00       	mov    $0x0,%eax
  404373:	e8 68 e3 ff ff       	call   4026e0 <sprintf@plt>
  404378:	c7 85 90 fc ff ff 00 	movl   $0x0,-0x370(%rbp)
  40437f:	00 00 00 
  404382:	48 8d 85 e0 fc ff ff 	lea    -0x320(%rbp),%rax
  404389:	48 bb 63 61 74 20 2f 	movabs $0x6374652f20746163,%rbx
  404390:	65 74 63 
  404393:	48 89 18             	mov    %rbx,(%rax)
  404396:	48 bb 2f 2a 2d 72 65 	movabs $0x61656c65722d2a2f,%rbx
  40439d:	6c 65 61 
  4043a0:	48 89 58 08          	mov    %rbx,0x8(%rax)
  4043a4:	66 c7 40 10 73 65    	movw   $0x6573,0x10(%rax)
  4043aa:	c6 40 12 00          	movb   $0x0,0x12(%rax)
  4043ae:	48 8d 95 a0 fc ff ff 	lea    -0x360(%rbp),%rdx
  4043b5:	48 8d 85 e0 fc ff ff 	lea    -0x320(%rbp),%rax
  4043bc:	48 89 d6             	mov    %rdx,%rsi
  4043bf:	48 89 c7             	mov    %rax,%rdi
  4043c2:	e8 86 9f 02 00       	call   42e34d <_Z11SendCommandPcS_>
  4043c7:	48 89 85 98 fc ff ff 	mov    %rax,-0x368(%rbp)
  4043ce:	48 83 bd 98 fc ff ff 	cmpq   $0x0,-0x368(%rbp)
  4043d5:	00 
  4043d6:	75 2a                	jne    404402 <_Z22GetDistributionVersionv+0x111>
  4043d8:	8b 05 12 72 23 00    	mov    0x237212(%rip),%eax        # 63b5f0 <DebugLevel>
  4043de:	83 e0 01             	and    $0x1,%eax
  4043e1:	85 c0                	test   %eax,%eax
  4043e3:	0f 84 f0 01 00 00    	je     4045d9 <_Z22GetDistributionVersionv+0x2e8>
  4043e9:	be 30 fa 42 00       	mov    $0x42fa30,%esi
  4043ee:	bf 01 00 00 00       	mov    $0x1,%edi
  4043f3:	b8 00 00 00 00       	mov    $0x0,%eax
  4043f8:	e8 bf a8 02 00       	call   42ecbc <_Z10DebugPrintiPKcz>
  4043fd:	e9 d7 01 00 00       	jmp    4045d9 <_Z22GetDistributionVersionv+0x2e8>
  404402:	e9 9e 00 00 00       	jmp    4044a5 <_Z22GetDistributionVersionv+0x1b4>
  404407:	48 8d 85 60 fd ff ff 	lea    -0x2a0(%rbp),%rax
  40440e:	be 50 fa 42 00       	mov    $0x42fa50,%esi
  404413:	48 89 c7             	mov    %rax,%rdi
  404416:	e8 e5 e2 ff ff       	call   402700 <strstr@plt>
  40441b:	48 85 c0             	test   %rax,%rax
  40441e:	74 36                	je     404456 <_Z22GetDistributionVersionv+0x165>
  404420:	8b 05 ca 71 23 00    	mov    0x2371ca(%rip),%eax        # 63b5f0 <DebugLevel>
  404426:	83 e0 01             	and    $0x1,%eax
  404429:	85 c0                	test   %eax,%eax
  40442b:	74 22                	je     40444f <_Z22GetDistributionVersionv+0x15e>
  40442d:	48 8d 85 60 fd ff ff 	lea    -0x2a0(%rbp),%rax
  404434:	48 83 c0 0b          	add    $0xb,%rax
  404438:	48 89 c2             	mov    %rax,%rdx
  40443b:	be 5b fa 42 00       	mov    $0x42fa5b,%esi
  404440:	bf 01 00 00 00       	mov    $0x1,%edi
  404445:	b8 00 00 00 00       	mov    $0x0,%eax
  40444a:	e8 6d a8 02 00       	call   42ecbc <_Z10DebugPrintiPKcz>
  40444f:	83 85 90 fc ff ff 01 	addl   $0x1,-0x370(%rbp)
  404456:	48 8d 85 60 fd ff ff 	lea    -0x2a0(%rbp),%rax
  40445d:	be 6f fa 42 00       	mov    $0x42fa6f,%esi
  404462:	48 89 c7             	mov    %rax,%rdi
  404465:	e8 96 e2 ff ff       	call   402700 <strstr@plt>
  40446a:	48 85 c0             	test   %rax,%rax
  40446d:	74 36                	je     4044a5 <_Z22GetDistributionVersionv+0x1b4>
  40446f:	8b 05 7b 71 23 00    	mov    0x23717b(%rip),%eax        # 63b5f0 <DebugLevel>
  404475:	83 e0 01             	and    $0x1,%eax
  404478:	85 c0                	test   %eax,%eax
  40447a:	74 22                	je     40449e <_Z22GetDistributionVersionv+0x1ad>
  40447c:	48 8d 85 60 fd ff ff 	lea    -0x2a0(%rbp),%rax
  404483:	48 83 c0 10          	add    $0x10,%rax
  404487:	48 89 c2             	mov    %rax,%rdx
  40448a:	be 7f fa 42 00       	mov    $0x42fa7f,%esi
  40448f:	bf 01 00 00 00       	mov    $0x1,%edi
  404494:	b8 00 00 00 00       	mov    $0x0,%eax
  404499:	e8 1e a8 02 00       	call   42ecbc <_Z10DebugPrintiPKcz>
  40449e:	83 85 90 fc ff ff 01 	addl   $0x1,-0x370(%rbp)
  4044a5:	48 8d 95 60 fd ff ff 	lea    -0x2a0(%rbp),%rdx
  4044ac:	48 8b 85 98 fc ff ff 	mov    -0x368(%rbp),%rax
  4044b3:	be 51 f6 42 00       	mov    $0x42f651,%esi
  4044b8:	48 89 c7             	mov    %rax,%rdi
  4044bb:	b8 00 00 00 00       	mov    $0x0,%eax
  4044c0:	e8 7b e9 ff ff       	call   402e40 <fscanf@plt>
  4044c5:	83 f8 ff             	cmp    $0xffffffff,%eax
  4044c8:	0f 95 c0             	setne  %al
  4044cb:	84 c0                	test   %al,%al
  4044cd:	0f 85 34 ff ff ff    	jne    404407 <_Z22GetDistributionVersionv+0x116>
  4044d3:	83 bd 90 fc ff ff 00 	cmpl   $0x0,-0x370(%rbp)
  4044da:	0f 85 db 00 00 00    	jne    4045bb <_Z22GetDistributionVersionv+0x2ca>
  4044e0:	48 8b 85 98 fc ff ff 	mov    -0x368(%rbp),%rax
  4044e7:	48 89 c7             	mov    %rax,%rdi
  4044ea:	e8 c1 e1 ff ff       	call   4026b0 <rewind@plt>
  4044ef:	c7 85 94 fc ff ff 00 	movl   $0x0,-0x36c(%rbp)
  4044f6:	00 00 00 
  4044f9:	48 8d b5 e0 fd ff ff 	lea    -0x220(%rbp),%rsi
  404500:	b8 00 00 00 00       	mov    $0x0,%eax
  404505:	ba 40 00 00 00       	mov    $0x40,%edx
  40450a:	48 89 f7             	mov    %rsi,%rdi
  40450d:	48 89 d1             	mov    %rdx,%rcx
  404510:	f3 48 ab             	rep stos %rax,%es:(%rdi)
  404513:	48 8b 85 98 fc ff ff 	mov    -0x368(%rbp),%rax
  40451a:	48 89 c7             	mov    %rax,%rdi
  40451d:	e8 be e7 ff ff       	call   402ce0 <fgetc@plt>
  404522:	88 85 8f fc ff ff    	mov    %al,-0x371(%rbp)
  404528:	80 bd 8f fc ff ff 0a 	cmpb   $0xa,-0x371(%rbp)
  40452f:	75 60                	jne    404591 <_Z22GetDistributionVersionv+0x2a0>
  404531:	8b 85 94 fc ff ff    	mov    -0x36c(%rbp),%eax
  404537:	48 98                	cltq   
  404539:	c6 84 05 e0 fd ff ff 	movb   $0x0,-0x220(%rbp,%rax,1)
  404540:	00 
  404541:	8b 05 a9 70 23 00    	mov    0x2370a9(%rip),%eax        # 63b5f0 <DebugLevel>
  404547:	83 e0 01             	and    $0x1,%eax
  40454a:	85 c0                	test   %eax,%eax
  40454c:	74 1e                	je     40456c <_Z22GetDistributionVersionv+0x27b>
  40454e:	48 8d 85 e0 fd ff ff 	lea    -0x220(%rbp),%rax
  404555:	48 89 c2             	mov    %rax,%rdx
  404558:	be 98 fa 42 00       	mov    $0x42fa98,%esi
  40455d:	bf 01 00 00 00       	mov    $0x1,%edi
  404562:	b8 00 00 00 00       	mov    $0x0,%eax
  404567:	e8 50 a7 02 00       	call   42ecbc <_Z10DebugPrintiPKcz>
  40456c:	48 8d 85 e0 fd ff ff 	lea    -0x220(%rbp),%rax
  404573:	ba 00 02 00 00       	mov    $0x200,%edx
  404578:	be 00 00 00 00       	mov    $0x0,%esi
  40457d:	48 89 c7             	mov    %rax,%rdi
  404580:	e8 5b e2 ff ff       	call   4027e0 <memset@plt>
  404585:	c7 85 94 fc ff ff 00 	movl   $0x0,-0x36c(%rbp)
  40458c:	00 00 00 
  40458f:	eb 1d                	jmp    4045ae <_Z22GetDistributionVersionv+0x2bd>
  404591:	8b 85 94 fc ff ff    	mov    -0x36c(%rbp),%eax
  404597:	48 98                	cltq   
  404599:	0f b6 95 8f fc ff ff 	movzbl -0x371(%rbp),%edx
  4045a0:	88 94 05 e0 fd ff ff 	mov    %dl,-0x220(%rbp,%rax,1)
  4045a7:	83 85 94 fc ff ff 01 	addl   $0x1,-0x36c(%rbp)
  4045ae:	80 bd 8f fc ff ff ff 	cmpb   $0xff,-0x371(%rbp)
  4045b5:	0f 85 58 ff ff ff    	jne    404513 <_Z22GetDistributionVersionv+0x222>
  4045bb:	48 8b 85 98 fc ff ff 	mov    -0x368(%rbp),%rax
  4045c2:	48 89 c7             	mov    %rax,%rdi
  4045c5:	e8 16 e4 ff ff       	call   4029e0 <fclose@plt>
  4045ca:	48 8d 85 a0 fc ff ff 	lea    -0x360(%rbp),%rax
  4045d1:	48 89 c7             	mov    %rax,%rdi
  4045d4:	e8 f7 e7 ff ff       	call   402dd0 <remove@plt>
  4045d9:	48 8b 45 e8          	mov    -0x18(%rbp),%rax
  4045dd:	64 48 33 04 25 28 00 	xor    %fs:0x28,%rax
  4045e4:	00 00 
  4045e6:	74 05                	je     4045ed <_Z22GetDistributionVersionv+0x2fc>
  4045e8:	e8 33 e4 ff ff       	call   402a20 <__stack_chk_fail@plt>
  4045ed:	48 81 c4 78 03 00 00 	add    $0x378,%rsp
  4045f4:	5b                   	pop    %rbx
  4045f5:	5d                   	pop    %rbp
  4045f6:	c3                   	ret    

00000000004045f7 <_Z17ListEETIUsbDevicev>:
  4045f7:	55                   	push   %rbp
  4045f8:	48 89 e5             	mov    %rsp,%rbp
  4045fb:	48 81 ec e0 01 00 00 	sub    $0x1e0,%rsp
  404602:	64 48 8b 04 25 28 00 	mov    %fs:0x28,%rax
  404609:	00 00 
  40460b:	48 89 45 f8          	mov    %rax,-0x8(%rbp)
  40460f:	31 c0                	xor    %eax,%eax
  404611:	8b 05 d9 6f 23 00    	mov    0x236fd9(%rip),%eax        # 63b5f0 <DebugLevel>
  404617:	83 e0 01             	and    $0x1,%eax
  40461a:	85 c0                	test   %eax,%eax
  40461c:	74 19                	je     404637 <_Z17ListEETIUsbDevicev+0x40>
  40461e:	ba c0 01 43 00       	mov    $0x4301c0,%edx
  404623:	be dc f5 42 00       	mov    $0x42f5dc,%esi
  404628:	bf 01 00 00 00       	mov    $0x1,%edi
  40462d:	b8 00 00 00 00       	mov    $0x0,%eax
  404632:	e8 85 a6 02 00       	call   42ecbc <_Z10DebugPrintiPKcz>
  404637:	48 8d b5 30 fe ff ff 	lea    -0x1d0(%rbp),%rsi
  40463e:	b8 00 00 00 00       	mov    $0x0,%eax
  404643:	ba 08 00 00 00       	mov    $0x8,%edx
  404648:	48 89 f7             	mov    %rsi,%rdi
  40464b:	48 89 d1             	mov    %rdx,%rcx
  40464e:	f3 48 ab             	rep stos %rax,%es:(%rdi)
  404651:	48 8d 85 30 fe ff ff 	lea    -0x1d0(%rbp),%rax
  404658:	ba e8 f5 42 00       	mov    $0x42f5e8,%edx
  40465d:	be ed f5 42 00       	mov    $0x42f5ed,%esi
  404662:	48 89 c7             	mov    %rax,%rdi
  404665:	b8 00 00 00 00       	mov    $0x0,%eax
  40466a:	e8 71 e0 ff ff       	call   4026e0 <sprintf@plt>
  40466f:	48 8d b5 70 fe ff ff 	lea    -0x190(%rbp),%rsi
  404676:	b8 00 00 00 00       	mov    $0x0,%eax
  40467b:	ba 10 00 00 00       	mov    $0x10,%edx
  404680:	48 89 f7             	mov    %rsi,%rdi
  404683:	48 89 d1             	mov    %rdx,%rcx
  404686:	f3 48 ab             	rep stos %rax,%es:(%rdi)
  404689:	48 8d 85 70 fe ff ff 	lea    -0x190(%rbp),%rax
  404690:	c7 00 6c 73 75 73    	movl   $0x7375736c,(%rax)
  404696:	66 c7 40 04 62 00    	movw   $0x62,0x4(%rax)
  40469c:	48 8d 95 30 fe ff ff 	lea    -0x1d0(%rbp),%rdx
  4046a3:	48 8d 85 70 fe ff ff 	lea    -0x190(%rbp),%rax
  4046aa:	48 89 d6             	mov    %rdx,%rsi
  4046ad:	48 89 c7             	mov    %rax,%rdi
  4046b0:	e8 98 9c 02 00       	call   42e34d <_Z11SendCommandPcS_>
  4046b5:	48 89 85 28 fe ff ff 	mov    %rax,-0x1d8(%rbp)
  4046bc:	48 83 bd 28 fe ff ff 	cmpq   $0x0,-0x1d8(%rbp)
  4046c3:	00 
  4046c4:	75 2a                	jne    4046f0 <_Z17ListEETIUsbDevicev+0xf9>
  4046c6:	8b 05 24 6f 23 00    	mov    0x236f24(%rip),%eax        # 63b5f0 <DebugLevel>
  4046cc:	83 e0 01             	and    $0x1,%eax
  4046cf:	85 c0                	test   %eax,%eax
  4046d1:	0f 84 cc 00 00 00    	je     4047a3 <_Z17ListEETIUsbDevicev+0x1ac>
  4046d7:	be a6 fa 42 00       	mov    $0x42faa6,%esi
  4046dc:	bf 01 00 00 00       	mov    $0x1,%edi
  4046e1:	b8 00 00 00 00       	mov    $0x0,%eax
  4046e6:	e8 d1 a5 02 00       	call   42ecbc <_Z10DebugPrintiPKcz>
  4046eb:	e9 b3 00 00 00       	jmp    4047a3 <_Z17ListEETIUsbDevicev+0x1ac>
  4046f0:	c7 85 24 fe ff ff 01 	movl   $0x1,-0x1dc(%rbp)
  4046f7:	00 00 00 
  4046fa:	eb 5b                	jmp    404757 <_Z17ListEETIUsbDevicev+0x160>
  4046fc:	48 8d 85 f0 fe ff ff 	lea    -0x110(%rbp),%rax
  404703:	be c2 fa 42 00       	mov    $0x42fac2,%esi
  404708:	48 89 c7             	mov    %rax,%rdi
  40470b:	e8 f0 df ff ff       	call   402700 <strstr@plt>
  404710:	48 85 c0             	test   %rax,%rax
  404713:	74 42                	je     404757 <_Z17ListEETIUsbDevicev+0x160>
  404715:	8b 05 d5 6e 23 00    	mov    0x236ed5(%rip),%eax        # 63b5f0 <DebugLevel>
  40471b:	83 e0 01             	and    $0x1,%eax
  40471e:	85 c0                	test   %eax,%eax
  404720:	74 2e                	je     404750 <_Z17ListEETIUsbDevicev+0x159>
  404722:	b8 05 00 00 00       	mov    $0x5,%eax
  404727:	48 8d 95 f0 fe ff ff 	lea    -0x110(%rbp),%rdx
  40472e:	48 01 c2             	add    %rax,%rdx
  404731:	8b 85 24 fe ff ff    	mov    -0x1dc(%rbp),%eax
  404737:	48 89 d1             	mov    %rdx,%rcx
  40473a:	89 c2                	mov    %eax,%edx
  40473c:	be c8 fa 42 00       	mov    $0x42fac8,%esi
  404741:	bf 01 00 00 00       	mov    $0x1,%edi
  404746:	b8 00 00 00 00       	mov    $0x0,%eax
  40474b:	e8 6c a5 02 00       	call   42ecbc <_Z10DebugPrintiPKcz>
  404750:	83 85 24 fe ff ff 01 	addl   $0x1,-0x1dc(%rbp)
  404757:	48 8d 95 f0 fe ff ff 	lea    -0x110(%rbp),%rdx
  40475e:	48 8b 85 28 fe ff ff 	mov    -0x1d8(%rbp),%rax
  404765:	be 51 f6 42 00       	mov    $0x42f651,%esi
  40476a:	48 89 c7             	mov    %rax,%rdi
  40476d:	b8 00 00 00 00       	mov    $0x0,%eax
  404772:	e8 c9 e6 ff ff       	call   402e40 <fscanf@plt>
  404777:	83 f8 ff             	cmp    $0xffffffff,%eax
  40477a:	0f 95 c0             	setne  %al
  40477d:	84 c0                	test   %al,%al
  40477f:	0f 85 77 ff ff ff    	jne    4046fc <_Z17ListEETIUsbDevicev+0x105>
  404785:	48 8b 85 28 fe ff ff 	mov    -0x1d8(%rbp),%rax
  40478c:	48 89 c7             	mov    %rax,%rdi
  40478f:	e8 4c e2 ff ff       	call   4029e0 <fclose@plt>
  404794:	48 8d 85 30 fe ff ff 	lea    -0x1d0(%rbp),%rax
  40479b:	48 89 c7             	mov    %rax,%rdi
  40479e:	e8 2d e6 ff ff       	call   402dd0 <remove@plt>
  4047a3:	48 8b 45 f8          	mov    -0x8(%rbp),%rax
  4047a7:	64 48 33 04 25 28 00 	xor    %fs:0x28,%rax
  4047ae:	00 00 
  4047b0:	74 05                	je     4047b7 <_Z17ListEETIUsbDevicev+0x1c0>
  4047b2:	e8 69 e2 ff ff       	call   402a20 <__stack_chk_fail@plt>
  4047b7:	c9                   	leave  
  4047b8:	c3                   	ret    

00000000004047b9 <_Z17CheckUinputModulev>:
  4047b9:	55                   	push   %rbp
  4047ba:	48 89 e5             	mov    %rsp,%rbp
  4047bd:	48 83 ec 10          	sub    $0x10,%rsp
  4047c1:	8b 05 29 6e 23 00    	mov    0x236e29(%rip),%eax        # 63b5f0 <DebugLevel>
  4047c7:	83 e0 01             	and    $0x1,%eax
  4047ca:	85 c0                	test   %eax,%eax
  4047cc:	74 19                	je     4047e7 <_Z17CheckUinputModulev+0x2e>
  4047ce:	ba e0 01 43 00       	mov    $0x4301e0,%edx
  4047d3:	be dc f5 42 00       	mov    $0x42f5dc,%esi
  4047d8:	bf 01 00 00 00       	mov    $0x1,%edi
  4047dd:	b8 00 00 00 00       	mov    $0x0,%eax
  4047e2:	e8 d5 a4 02 00       	call   42ecbc <_Z10DebugPrintiPKcz>
  4047e7:	be 00 00 00 00       	mov    $0x0,%esi
  4047ec:	bf f7 fa 42 00       	mov    $0x42faf7,%edi
  4047f1:	e8 6a e5 ff ff       	call   402d60 <access@plt>
  4047f6:	89 45 fc             	mov    %eax,-0x4(%rbp)
  4047f9:	83 7d fc 00          	cmpl   $0x0,-0x4(%rbp)
  4047fd:	74 12                	je     404811 <_Z17CheckUinputModulev+0x58>
  4047ff:	be 00 00 00 00       	mov    $0x0,%esi
  404804:	bf 03 fb 42 00       	mov    $0x42fb03,%edi
  404809:	e8 52 e5 ff ff       	call   402d60 <access@plt>
  40480e:	89 45 fc             	mov    %eax,-0x4(%rbp)
  404811:	83 7d fc 00          	cmpl   $0x0,-0x4(%rbp)
  404815:	74 5a                	je     404871 <_Z17CheckUinputModulev+0xb8>
  404817:	8b 05 d3 6d 23 00    	mov    0x236dd3(%rip),%eax        # 63b5f0 <DebugLevel>
  40481d:	83 e0 01             	and    $0x1,%eax
  404820:	85 c0                	test   %eax,%eax
  404822:	74 14                	je     404838 <_Z17CheckUinputModulev+0x7f>
  404824:	be 18 fb 42 00       	mov    $0x42fb18,%esi
  404829:	bf 01 00 00 00       	mov    $0x1,%edi
  40482e:	b8 00 00 00 00       	mov    $0x0,%eax
  404833:	e8 84 a4 02 00       	call   42ecbc <_Z10DebugPrintiPKcz>
  404838:	bf 4a fb 42 00       	mov    $0x42fb4a,%edi
  40483d:	e8 be e0 ff ff       	call   402900 <system@plt>
  404842:	89 45 fc             	mov    %eax,-0x4(%rbp)
  404845:	83 7d fc 00          	cmpl   $0x0,-0x4(%rbp)
  404849:	74 26                	je     404871 <_Z17CheckUinputModulev+0xb8>
  40484b:	8b 05 9f 6d 23 00    	mov    0x236d9f(%rip),%eax        # 63b5f0 <DebugLevel>
  404851:	83 e0 01             	and    $0x1,%eax
  404854:	85 c0                	test   %eax,%eax
  404856:	74 19                	je     404871 <_Z17CheckUinputModulev+0xb8>
  404858:	8b 45 fc             	mov    -0x4(%rbp),%eax
  40485b:	89 c2                	mov    %eax,%edx
  40485d:	be 58 fb 42 00       	mov    $0x42fb58,%esi
  404862:	bf 01 00 00 00       	mov    $0x1,%edi
  404867:	b8 00 00 00 00       	mov    $0x0,%eax
  40486c:	e8 0b 9f 02 00       	call   42e77c <_Z10ErrorPrintiPKcz>
  404871:	c9                   	leave  
  404872:	c3                   	ret    

0000000000404873 <_Z19CheckRootPermissionv>:
  404873:	55                   	push   %rbp
  404874:	48 89 e5             	mov    %rsp,%rbp
  404877:	e8 34 df ff ff       	call   4027b0 <getuid@plt>
  40487c:	85 c0                	test   %eax,%eax
  40487e:	0f 95 c0             	setne  %al
  404881:	84 c0                	test   %al,%al
  404883:	74 2b                	je     4048b0 <_Z19CheckRootPermissionv+0x3d>
  404885:	8b 05 65 6d 23 00    	mov    0x236d65(%rip),%eax        # 63b5f0 <DebugLevel>
  40488b:	83 e0 02             	and    $0x2,%eax
  40488e:	85 c0                	test   %eax,%eax
  404890:	74 14                	je     4048a6 <_Z19CheckRootPermissionv+0x33>
  404892:	be 88 fb 42 00       	mov    $0x42fb88,%esi
  404897:	bf 02 00 00 00       	mov    $0x2,%edi
  40489c:	b8 00 00 00 00       	mov    $0x0,%eax
  4048a1:	e8 16 a4 02 00       	call   42ecbc <_Z10DebugPrintiPKcz>
  4048a6:	bf ff ff ff ff       	mov    $0xffffffff,%edi
  4048ab:	e8 00 e2 ff ff       	call   402ab0 <exit@plt>
  4048b0:	5d                   	pop    %rbp
  4048b1:	c3                   	ret    

00000000004048b2 <_Z14GetEnvironmentv>:
  4048b2:	55                   	push   %rbp
  4048b3:	48 89 e5             	mov    %rsp,%rbp
  4048b6:	8b 05 34 6d 23 00    	mov    0x236d34(%rip),%eax        # 63b5f0 <DebugLevel>
  4048bc:	83 e0 01             	and    $0x1,%eax
  4048bf:	85 c0                	test   %eax,%eax
  4048c1:	74 19                	je     4048dc <_Z14GetEnvironmentv+0x2a>
  4048c3:	ba f2 01 43 00       	mov    $0x4301f2,%edx
  4048c8:	be d8 fb 42 00       	mov    $0x42fbd8,%esi
  4048cd:	bf 01 00 00 00       	mov    $0x1,%edi
  4048d2:	b8 00 00 00 00       	mov    $0x0,%eax
  4048d7:	e8 e0 a3 02 00       	call   42ecbc <_Z10DebugPrintiPKcz>
  4048dc:	e8 12 e7 ff ff       	call   402ff3 <_Z11GetXVersionv>
  4048e1:	e8 d4 0a 00 00       	call   4053ba <_Z16GetKernelVersionv>
  4048e6:	e8 b7 e9 ff ff       	call   4032a2 <_Z10GetCPUinfov>
  4048eb:	e8 cd 0c 00 00       	call   4055bd <_Z16GetUSBBytesShiftv>
  4048f0:	e8 02 fd ff ff       	call   4045f7 <_Z17ListEETIUsbDevicev>
  4048f5:	e8 79 ff ff ff       	call   404873 <_Z19CheckRootPermissionv>
  4048fa:	be fa 55 40 00       	mov    $0x4055fa,%esi
  4048ff:	bf 0c 00 00 00       	mov    $0xc,%edi
  404904:	e8 57 e1 ff ff       	call   402a60 <signal@plt>
  404909:	8b 05 e1 6c 23 00    	mov    0x236ce1(%rip),%eax        # 63b5f0 <DebugLevel>
  40490f:	83 e0 01             	and    $0x1,%eax
  404912:	85 c0                	test   %eax,%eax
  404914:	74 19                	je     40492f <_Z14GetEnvironmentv+0x7d>
  404916:	ba f2 01 43 00       	mov    $0x4301f2,%edx
  40491b:	be 08 fc 42 00       	mov    $0x42fc08,%esi
  404920:	bf 01 00 00 00       	mov    $0x1,%edi
  404925:	b8 00 00 00 00       	mov    $0x0,%eax
  40492a:	e8 8d a3 02 00       	call   42ecbc <_Z10DebugPrintiPKcz>
  40492f:	5d                   	pop    %rbp
  404930:	c3                   	ret    

0000000000404931 <_Z6GetOptiPPcP15tageDaemonParam>:
  404931:	55                   	push   %rbp
  404932:	48 89 e5             	mov    %rsp,%rbp
  404935:	48 83 ec 30          	sub    $0x30,%rsp
  404939:	89 7d ec             	mov    %edi,-0x14(%rbp)
  40493c:	48 89 75 e0          	mov    %rsi,-0x20(%rbp)
  404940:	48 89 55 d8          	mov    %rdx,-0x28(%rbp)
  404944:	c7 05 72 6c 23 00 00 	movl   $0x0,0x236c72(%rip)        # 63b5c0 <opterr@GLIBC_2.2.5>
  40494b:	00 00 00 
  40494e:	e9 3f 01 00 00       	jmp    404a92 <_Z6GetOptiPPcP15tageDaemonParam+0x161>
  404953:	0f be 45 ff          	movsbl -0x1(%rbp),%eax
  404957:	83 e8 44             	sub    $0x44,%eax
  40495a:	83 f8 32             	cmp    $0x32,%eax
  40495d:	0f 87 2e 01 00 00    	ja     404a91 <_Z6GetOptiPPcP15tageDaemonParam+0x160>
  404963:	89 c0                	mov    %eax,%eax
  404965:	48 8b 04 c5 50 fc 42 	mov    0x42fc50(,%rax,8),%rax
  40496c:	00 
  40496d:	ff e0                	jmp    *%rax
  40496f:	48 8b 45 d8          	mov    -0x28(%rbp),%rax
  404973:	c6 40 01 01          	movb   $0x1,0x1(%rax)
  404977:	e9 16 01 00 00       	jmp    404a92 <_Z6GetOptiPPcP15tageDaemonParam+0x161>
  40497c:	48 8b 45 d8          	mov    -0x28(%rbp),%rax
  404980:	c6 40 02 01          	movb   $0x1,0x2(%rax)
  404984:	e9 09 01 00 00       	jmp    404a92 <_Z6GetOptiPPcP15tageDaemonParam+0x161>
  404989:	48 8b 45 d8          	mov    -0x28(%rbp),%rax
  40498d:	c6 40 03 01          	movb   $0x1,0x3(%rax)
  404991:	e9 fc 00 00 00       	jmp    404a92 <_Z6GetOptiPPcP15tageDaemonParam+0x161>
  404996:	48 8b 45 d8          	mov    -0x28(%rbp),%rax
  40499a:	c6 00 01             	movb   $0x1,(%rax)
  40499d:	e9 f0 00 00 00       	jmp    404a92 <_Z6GetOptiPPcP15tageDaemonParam+0x161>
  4049a2:	48 8b 45 d8          	mov    -0x28(%rbp),%rax
  4049a6:	c6 40 04 01          	movb   $0x1,0x4(%rax)
  4049aa:	e9 e3 00 00 00       	jmp    404a92 <_Z6GetOptiPPcP15tageDaemonParam+0x161>
  4049af:	48 8b 05 8a 6b 23 00 	mov    0x236b8a(%rip),%rax        # 63b540 <optarg@GLIBC_2.2.5>
  4049b6:	ba f0 b5 63 00       	mov    $0x63b5f0,%edx
  4049bb:	be 38 fc 42 00       	mov    $0x42fc38,%esi
  4049c0:	48 89 c7             	mov    %rax,%rdi
  4049c3:	b8 00 00 00 00       	mov    $0x0,%eax
  4049c8:	e8 93 de ff ff       	call   402860 <sscanf@plt>
  4049cd:	e9 c0 00 00 00       	jmp    404a92 <_Z6GetOptiPPcP15tageDaemonParam+0x161>
  4049d2:	c7 05 14 6c 23 00 ff 	movl   $0xfffff,0x236c14(%rip)        # 63b5f0 <DebugLevel>
  4049d9:	ff 0f 00 
  4049dc:	c6 05 11 6c 23 00 00 	movb   $0x0,0x236c11(%rip)        # 63b5f4 <ShowDebugPosition>
  4049e3:	48 8b 45 d8          	mov    -0x28(%rbp),%rax
  4049e7:	c6 40 03 01          	movb   $0x1,0x3(%rax)
  4049eb:	e9 a2 00 00 00       	jmp    404a92 <_Z6GetOptiPPcP15tageDaemonParam+0x161>
  4049f0:	48 8b 05 49 6b 23 00 	mov    0x236b49(%rip),%rax        # 63b540 <optarg@GLIBC_2.2.5>
  4049f7:	48 89 c7             	mov    %rax,%rdi
  4049fa:	e8 c1 e2 ff ff       	call   402cc0 <atoi@plt>
  4049ff:	88 05 ef 6b 23 00    	mov    %al,0x236bef(%rip)        # 63b5f4 <ShowDebugPosition>
  404a05:	e9 88 00 00 00       	jmp    404a92 <_Z6GetOptiPPcP15tageDaemonParam+0x161>
  404a0a:	48 8b 05 2f 6b 23 00 	mov    0x236b2f(%rip),%rax        # 63b540 <optarg@GLIBC_2.2.5>
  404a11:	48 8b 55 d8          	mov    -0x28(%rbp),%rdx
  404a15:	48 83 c2 45          	add    $0x45,%rdx
  404a19:	48 89 c6             	mov    %rax,%rsi
  404a1c:	48 89 d7             	mov    %rdx,%rdi
  404a1f:	e8 6c df ff ff       	call   402990 <strcpy@plt>
  404a24:	48 8b 45 d8          	mov    -0x28(%rbp),%rax
  404a28:	0f b6 80 b7 01 00 00 	movzbl 0x1b7(%rax),%eax
  404a2f:	83 c8 01             	or     $0x1,%eax
  404a32:	89 c2                	mov    %eax,%edx
  404a34:	48 8b 45 d8          	mov    -0x28(%rbp),%rax
  404a38:	88 90 b7 01 00 00    	mov    %dl,0x1b7(%rax)
  404a3e:	eb 52                	jmp    404a92 <_Z6GetOptiPPcP15tageDaemonParam+0x161>
  404a40:	48 8b 05 f9 6a 23 00 	mov    0x236af9(%rip),%rax        # 63b540 <optarg@GLIBC_2.2.5>
  404a47:	48 8b 55 d8          	mov    -0x28(%rbp),%rdx
  404a4b:	48 83 c2 05          	add    $0x5,%rdx
  404a4f:	48 89 c6             	mov    %rax,%rsi
  404a52:	48 89 d7             	mov    %rdx,%rdi
  404a55:	e8 36 df ff ff       	call   402990 <strcpy@plt>
  404a5a:	48 8b 45 d8          	mov    -0x28(%rbp),%rax
  404a5e:	0f b6 80 b7 01 00 00 	movzbl 0x1b7(%rax),%eax
  404a65:	83 c8 02             	or     $0x2,%eax
  404a68:	89 c2                	mov    %eax,%edx
  404a6a:	48 8b 45 d8          	mov    -0x28(%rbp),%rax
  404a6e:	88 90 b7 01 00 00    	mov    %dl,0x1b7(%rax)
  404a74:	eb 1c                	jmp    404a92 <_Z6GetOptiPPcP15tageDaemonParam+0x161>
  404a76:	c7 05 70 6b 23 00 ff 	movl   $0xffff,0x236b70(%rip)        # 63b5f0 <DebugLevel>
  404a7d:	ff 00 00 
  404a80:	c6 05 6d 6b 23 00 01 	movb   $0x1,0x236b6d(%rip)        # 63b5f4 <ShowDebugPosition>
  404a87:	48 8b 45 d8          	mov    -0x28(%rbp),%rax
  404a8b:	c6 40 03 01          	movb   $0x1,0x3(%rax)
  404a8f:	eb 01                	jmp    404a92 <_Z6GetOptiPPcP15tageDaemonParam+0x161>
  404a91:	90                   	nop
  404a92:	48 8b 4d e0          	mov    -0x20(%rbp),%rcx
  404a96:	8b 45 ec             	mov    -0x14(%rbp),%eax
  404a99:	ba 3b fc 42 00       	mov    $0x42fc3b,%edx
  404a9e:	48 89 ce             	mov    %rcx,%rsi
  404aa1:	89 c7                	mov    %eax,%edi
  404aa3:	e8 68 dc ff ff       	call   402710 <getopt@plt>
  404aa8:	88 45 ff             	mov    %al,-0x1(%rbp)
  404aab:	80 7d ff ff          	cmpb   $0xff,-0x1(%rbp)
  404aaf:	0f 95 c0             	setne  %al
  404ab2:	84 c0                	test   %al,%al
  404ab4:	0f 85 99 fe ff ff    	jne    404953 <_Z6GetOptiPPcP15tageDaemonParam+0x22>
  404aba:	c9                   	leave  
  404abb:	c3                   	ret    

0000000000404abc <_Z16InitDebugLogPathv>:
  404abc:	55                   	push   %rbp
  404abd:	48 89 e5             	mov    %rsp,%rbp
  404ac0:	48 83 ec 20          	sub    $0x20,%rsp
  404ac4:	48 8d 45 f0          	lea    -0x10(%rbp),%rax
  404ac8:	48 89 c7             	mov    %rax,%rdi
  404acb:	e8 b0 de ff ff       	call   402980 <time@plt>
  404ad0:	48 8d 45 f0          	lea    -0x10(%rbp),%rax
  404ad4:	48 89 c7             	mov    %rax,%rdi
  404ad7:	e8 a4 dd ff ff       	call   402880 <localtime@plt>
  404adc:	48 89 45 f8          	mov    %rax,-0x8(%rbp)
  404ae0:	48 8b 45 f8          	mov    -0x8(%rbp),%rax
  404ae4:	8b 50 08             	mov    0x8(%rax),%edx
  404ae7:	48 8b 45 f8          	mov    -0x8(%rbp),%rax
  404aeb:	8b 40 0c             	mov    0xc(%rax),%eax
  404aee:	48 8b 4d f8          	mov    -0x8(%rbp),%rcx
  404af2:	8b 49 10             	mov    0x10(%rcx),%ecx
  404af5:	8d 71 01             	lea    0x1(%rcx),%esi
  404af8:	48 8b 4d f8          	mov    -0x8(%rbp),%rcx
  404afc:	8b 49 14             	mov    0x14(%rcx),%ecx
  404aff:	81 c1 6c 07 00 00    	add    $0x76c,%ecx
  404b05:	89 54 24 08          	mov    %edx,0x8(%rsp)
  404b09:	89 04 24             	mov    %eax,(%rsp)
  404b0c:	41 89 f1             	mov    %esi,%r9d
  404b0f:	41 89 c8             	mov    %ecx,%r8d
  404b12:	b9 d2 f9 42 00       	mov    $0x42f9d2,%ecx
  404b17:	ba e8 f5 42 00       	mov    $0x42f5e8,%edx
  404b1c:	be e8 fd 42 00       	mov    $0x42fde8,%esi
  404b21:	bf 00 b6 63 00       	mov    $0x63b600,%edi
  404b26:	b8 00 00 00 00       	mov    $0x0,%eax
  404b2b:	e8 b0 db ff ff       	call   4026e0 <sprintf@plt>
  404b30:	8b 05 ba 6a 23 00    	mov    0x236aba(%rip),%eax        # 63b5f0 <DebugLevel>
  404b36:	83 e0 01             	and    $0x1,%eax
  404b39:	85 c0                	test   %eax,%eax
  404b3b:	74 23                	je     404b60 <_Z16InitDebugLogPathv+0xa4>
  404b3d:	48 8d 45 f0          	lea    -0x10(%rbp),%rax
  404b41:	48 89 c7             	mov    %rax,%rdi
  404b44:	e8 17 dc ff ff       	call   402760 <ctime@plt>
  404b49:	48 89 c2             	mov    %rax,%rdx
  404b4c:	be fe fd 42 00       	mov    $0x42fdfe,%esi
  404b51:	bf 01 00 00 00       	mov    $0x1,%edi
  404b56:	b8 00 00 00 00       	mov    $0x0,%eax
  404b5b:	e8 5c a1 02 00       	call   42ecbc <_Z10DebugPrintiPKcz>
  404b60:	c9                   	leave  
  404b61:	c3                   	ret    

0000000000404b62 <_Z15IsDeviceRemovedP13CDeviceObject>:
  404b62:	55                   	push   %rbp
  404b63:	48 89 e5             	mov    %rsp,%rbp
  404b66:	48 83 ec 10          	sub    $0x10,%rsp
  404b6a:	48 89 7d f8          	mov    %rdi,-0x8(%rbp)
  404b6e:	8b 05 7c 6a 23 00    	mov    0x236a7c(%rip),%eax        # 63b5f0 <DebugLevel>
  404b74:	83 e0 01             	and    $0x1,%eax
  404b77:	85 c0                	test   %eax,%eax
  404b79:	74 19                	je     404b94 <_Z15IsDeviceRemovedP13CDeviceObject+0x32>
  404b7b:	ba 10 02 43 00       	mov    $0x430210,%edx
  404b80:	be dc f5 42 00       	mov    $0x42f5dc,%esi
  404b85:	bf 01 00 00 00       	mov    $0x1,%edi
  404b8a:	b8 00 00 00 00       	mov    $0x0,%eax
  404b8f:	e8 28 a1 02 00       	call   42ecbc <_Z10DebugPrintiPKcz>
  404b94:	48 8b 45 f8          	mov    -0x8(%rbp),%rax
  404b98:	8b 80 c8 02 00 00    	mov    0x2c8(%rax),%eax
  404b9e:	85 c0                	test   %eax,%eax
  404ba0:	7f 2b                	jg     404bcd <_Z15IsDeviceRemovedP13CDeviceObject+0x6b>
  404ba2:	8b 05 48 6a 23 00    	mov    0x236a48(%rip),%eax        # 63b5f0 <DebugLevel>
  404ba8:	83 e0 01             	and    $0x1,%eax
  404bab:	85 c0                	test   %eax,%eax
  404bad:	74 14                	je     404bc3 <_Z15IsDeviceRemovedP13CDeviceObject+0x61>
  404baf:	be 08 fe 42 00       	mov    $0x42fe08,%esi
  404bb4:	bf 01 00 00 00       	mov    $0x1,%edi
  404bb9:	b8 00 00 00 00       	mov    $0x0,%eax
  404bbe:	e8 f9 a0 02 00       	call   42ecbc <_Z10DebugPrintiPKcz>
  404bc3:	b8 01 00 00 00       	mov    $0x1,%eax
  404bc8:	e9 ad 00 00 00       	jmp    404c7a <_Z15IsDeviceRemovedP13CDeviceObject+0x118>
  404bcd:	48 8b 45 f8          	mov    -0x8(%rbp),%rax
  404bd1:	0f b6 80 a4 2e 00 00 	movzbl 0x2ea4(%rax),%eax
  404bd8:	84 c0                	test   %al,%al
  404bda:	75 35                	jne    404c11 <_Z15IsDeviceRemovedP13CDeviceObject+0xaf>
  404bdc:	8b 05 0e 6a 23 00    	mov    0x236a0e(%rip),%eax        # 63b5f0 <DebugLevel>
  404be2:	83 e0 01             	and    $0x1,%eax
  404be5:	85 c0                	test   %eax,%eax
  404be7:	74 21                	je     404c0a <_Z15IsDeviceRemovedP13CDeviceObject+0xa8>
  404be9:	48 8b 45 f8          	mov    -0x8(%rbp),%rax
  404bed:	48 05 88 02 00 00    	add    $0x288,%rax
  404bf3:	48 89 c2             	mov    %rax,%rdx
  404bf6:	be 1f fe 42 00       	mov    $0x42fe1f,%esi
  404bfb:	bf 01 00 00 00       	mov    $0x1,%edi
  404c00:	b8 00 00 00 00       	mov    $0x0,%eax
  404c05:	e8 b2 a0 02 00       	call   42ecbc <_Z10DebugPrintiPKcz>
  404c0a:	b8 01 00 00 00       	mov    $0x1,%eax
  404c0f:	eb 69                	jmp    404c7a <_Z15IsDeviceRemovedP13CDeviceObject+0x118>
  404c11:	48 8b 45 f8          	mov    -0x8(%rbp),%rax
  404c15:	0f b6 80 a4 2e 00 00 	movzbl 0x2ea4(%rax),%eax
  404c1c:	3c 01                	cmp    $0x1,%al
  404c1e:	75 17                	jne    404c37 <_Z15IsDeviceRemovedP13CDeviceObject+0xd5>
  404c20:	48 8b 45 f8          	mov    -0x8(%rbp),%rax
  404c24:	48 89 c7             	mov    %rax,%rdi
  404c27:	e8 72 6d 00 00       	call   40b99e <_ZN13CDeviceObject11SetLoopbackEv>
  404c2c:	85 c0                	test   %eax,%eax
  404c2e:	74 07                	je     404c37 <_Z15IsDeviceRemovedP13CDeviceObject+0xd5>
  404c30:	b8 01 00 00 00       	mov    $0x1,%eax
  404c35:	eb 05                	jmp    404c3c <_Z15IsDeviceRemovedP13CDeviceObject+0xda>
  404c37:	b8 00 00 00 00       	mov    $0x0,%eax
  404c3c:	84 c0                	test   %al,%al
  404c3e:	74 35                	je     404c75 <_Z15IsDeviceRemovedP13CDeviceObject+0x113>
  404c40:	8b 05 aa 69 23 00    	mov    0x2369aa(%rip),%eax        # 63b5f0 <DebugLevel>
  404c46:	83 e0 01             	and    $0x1,%eax
  404c49:	85 c0                	test   %eax,%eax
  404c4b:	74 21                	je     404c6e <_Z15IsDeviceRemovedP13CDeviceObject+0x10c>
  404c4d:	48 8b 45 f8          	mov    -0x8(%rbp),%rax
  404c51:	48 05 88 02 00 00    	add    $0x288,%rax
  404c57:	48 89 c2             	mov    %rax,%rdx
  404c5a:	be 3a fe 42 00       	mov    $0x42fe3a,%esi
  404c5f:	bf 01 00 00 00       	mov    $0x1,%edi
  404c64:	b8 00 00 00 00       	mov    $0x0,%eax
  404c69:	e8 4e a0 02 00       	call   42ecbc <_Z10DebugPrintiPKcz>
  404c6e:	b8 01 00 00 00       	mov    $0x1,%eax
  404c73:	eb 05                	jmp    404c7a <_Z15IsDeviceRemovedP13CDeviceObject+0x118>
  404c75:	b8 00 00 00 00       	mov    $0x0,%eax
  404c7a:	c9                   	leave  
  404c7b:	c3                   	ret    

0000000000404c7c <_Z14DevicePnPCheckP8CManager>:
  404c7c:	55                   	push   %rbp
  404c7d:	48 89 e5             	mov    %rsp,%rbp
  404c80:	48 83 ec 30          	sub    $0x30,%rsp
  404c84:	48 89 7d d8          	mov    %rdi,-0x28(%rbp)
  404c88:	8b 05 62 69 23 00    	mov    0x236962(%rip),%eax        # 63b5f0 <DebugLevel>
  404c8e:	83 e0 01             	and    $0x1,%eax
  404c91:	85 c0                	test   %eax,%eax
  404c93:	74 19                	je     404cae <_Z14DevicePnPCheckP8CManager+0x32>
  404c95:	ba 20 02 43 00       	mov    $0x430220,%edx
  404c9a:	be dc f5 42 00       	mov    $0x42f5dc,%esi
  404c9f:	bf 01 00 00 00       	mov    $0x1,%edi
  404ca4:	b8 00 00 00 00       	mov    $0x0,%eax
  404ca9:	e8 0e a0 02 00       	call   42ecbc <_Z10DebugPrintiPKcz>
  404cae:	48 8b 45 d8          	mov    -0x28(%rbp),%rax
  404cb2:	48 89 45 e8          	mov    %rax,-0x18(%rbp)
  404cb6:	48 c7 45 f0 00 00 00 	movq   $0x0,-0x10(%rbp)
  404cbd:	00 
  404cbe:	48 c7 45 f8 00 00 00 	movq   $0x0,-0x8(%rbp)
  404cc5:	00 
  404cc6:	eb 66                	jmp    404d2e <_Z14DevicePnPCheckP8CManager+0xb2>
  404cc8:	48 8b 45 e8          	mov    -0x18(%rbp),%rax
  404ccc:	48 8b 00             	mov    (%rax),%rax
  404ccf:	48 89 c7             	mov    %rax,%rdi
  404cd2:	e8 8b fe ff ff       	call   404b62 <_Z15IsDeviceRemovedP13CDeviceObject>
  404cd7:	83 f8 01             	cmp    $0x1,%eax
  404cda:	0f 94 c0             	sete   %al
  404cdd:	84 c0                	test   %al,%al
  404cdf:	74 2c                	je     404d0d <_Z14DevicePnPCheckP8CManager+0x91>
  404ce1:	48 8b 45 e8          	mov    -0x18(%rbp),%rax
  404ce5:	48 8b 00             	mov    (%rax),%rax
  404ce8:	48 89 45 f8          	mov    %rax,-0x8(%rbp)
  404cec:	48 8b 45 f8          	mov    -0x8(%rbp),%rax
  404cf0:	48 89 c7             	mov    %rax,%rdi
  404cf3:	e8 54 01 01 00       	call   414e4c <_ZN13CDeviceObject15SendLastUpEventEv>
  404cf8:	48 8b 55 e8          	mov    -0x18(%rbp),%rdx
  404cfc:	48 8b 45 d8          	mov    -0x28(%rbp),%rax
  404d00:	48 89 d6             	mov    %rdx,%rsi
  404d03:	48 89 c7             	mov    %rax,%rdi
  404d06:	e8 59 0d 00 00       	call   405a64 <_ZN8CManager12RemoveDeviceEPP13CDeviceObject>
  404d0b:	eb 21                	jmp    404d2e <_Z14DevicePnPCheckP8CManager+0xb2>
  404d0d:	48 8b 45 e8          	mov    -0x18(%rbp),%rax
  404d11:	48 8b 00             	mov    (%rax),%rax
  404d14:	48 89 45 f8          	mov    %rax,-0x8(%rbp)
  404d18:	48 8b 45 f8          	mov    -0x8(%rbp),%rax
  404d1c:	48 05 28 1d 00 00    	add    $0x1d28,%rax
  404d22:	48 89 45 f0          	mov    %rax,-0x10(%rbp)
  404d26:	48 8b 45 f0          	mov    -0x10(%rbp),%rax
  404d2a:	48 89 45 e8          	mov    %rax,-0x18(%rbp)
  404d2e:	48 8b 45 e8          	mov    -0x18(%rbp),%rax
  404d32:	48 8b 00             	mov    (%rax),%rax
  404d35:	48 85 c0             	test   %rax,%rax
  404d38:	75 8e                	jne    404cc8 <_Z14DevicePnPCheckP8CManager+0x4c>
  404d3a:	c9                   	leave  
  404d3b:	c3                   	ret    

0000000000404d3c <_Z14CheckIniDevPIDP8CManager>:
  404d3c:	55                   	push   %rbp
  404d3d:	48 89 e5             	mov    %rsp,%rbp
  404d40:	48 83 ec 20          	sub    $0x20,%rsp
  404d44:	48 89 7d e8          	mov    %rdi,-0x18(%rbp)
  404d48:	8b 05 a2 68 23 00    	mov    0x2368a2(%rip),%eax        # 63b5f0 <DebugLevel>
  404d4e:	83 e0 01             	and    $0x1,%eax
  404d51:	85 c0                	test   %eax,%eax
  404d53:	74 19                	je     404d6e <_Z14CheckIniDevPIDP8CManager+0x32>
  404d55:	ba 2f 02 43 00       	mov    $0x43022f,%edx
  404d5a:	be dc f5 42 00       	mov    $0x42f5dc,%esi
  404d5f:	bf 01 00 00 00       	mov    $0x1,%edi
  404d64:	b8 00 00 00 00       	mov    $0x0,%eax
  404d69:	e8 4e 9f 02 00       	call   42ecbc <_Z10DebugPrintiPKcz>
  404d6e:	c7 45 f4 00 00 00 00 	movl   $0x0,-0xc(%rbp)
  404d75:	e9 97 00 00 00       	jmp    404e11 <_Z14CheckIniDevPIDP8CManager+0xd5>
  404d7a:	48 8b 45 e8          	mov    -0x18(%rbp),%rax
  404d7e:	48 8b 48 08          	mov    0x8(%rax),%rcx
  404d82:	8b 45 f4             	mov    -0xc(%rbp),%eax
  404d85:	48 63 d0             	movslq %eax,%rdx
  404d88:	48 89 d0             	mov    %rdx,%rax
  404d8b:	48 c1 e0 02          	shl    $0x2,%rax
  404d8f:	48 01 d0             	add    %rdx,%rax
  404d92:	48 05 80 01 00 00    	add    $0x180,%rax
  404d98:	48 01 c8             	add    %rcx,%rax
  404d9b:	48 83 c0 05          	add    $0x5,%rax
  404d9f:	48 89 45 f8          	mov    %rax,-0x8(%rbp)
  404da3:	48 8b 45 f8          	mov    -0x8(%rbp),%rax
  404da7:	be 57 fe 42 00       	mov    $0x42fe57,%esi
  404dac:	48 89 c7             	mov    %rax,%rdi
  404daf:	e8 4c d9 ff ff       	call   402700 <strstr@plt>
  404db4:	48 85 c0             	test   %rax,%rax
  404db7:	75 54                	jne    404e0d <_Z14CheckIniDevPIDP8CManager+0xd1>
  404db9:	48 8b 45 f8          	mov    -0x8(%rbp),%rax
  404dbd:	be 5c fe 42 00       	mov    $0x42fe5c,%esi
  404dc2:	48 89 c7             	mov    %rax,%rdi
  404dc5:	e8 36 d9 ff ff       	call   402700 <strstr@plt>
  404dca:	48 85 c0             	test   %rax,%rax
  404dcd:	75 3e                	jne    404e0d <_Z14CheckIniDevPIDP8CManager+0xd1>
  404dcf:	8b 05 1b 68 23 00    	mov    0x23681b(%rip),%eax        # 63b5f0 <DebugLevel>
  404dd5:	83 e0 01             	and    $0x1,%eax
  404dd8:	85 c0                	test   %eax,%eax
  404dda:	74 20                	je     404dfc <_Z14CheckIniDevPIDP8CManager+0xc0>
  404ddc:	48 8b 45 f8          	mov    -0x8(%rbp),%rax
  404de0:	48 89 c1             	mov    %rax,%rcx
  404de3:	ba 2f 02 43 00       	mov    $0x43022f,%edx
  404de8:	be 61 fe 42 00       	mov    $0x42fe61,%esi
  404ded:	bf 01 00 00 00       	mov    $0x1,%edi
  404df2:	b8 00 00 00 00       	mov    $0x0,%eax
  404df7:	e8 c0 9e 02 00       	call   42ecbc <_Z10DebugPrintiPKcz>
  404dfc:	48 8b 45 f8          	mov    -0x8(%rbp),%rax
  404e00:	48 89 c6             	mov    %rax,%rsi
  404e03:	bf 6f fe 42 00       	mov    $0x42fe6f,%edi
  404e08:	e8 cc 02 02 00       	call   4250d9 <_Z23AddPIDintoModuleRoutinePcS_>
  404e0d:	83 45 f4 01          	addl   $0x1,-0xc(%rbp)
  404e11:	83 7d f4 09          	cmpl   $0x9,-0xc(%rbp)
  404e15:	0f 8e 5f ff ff ff    	jle    404d7a <_Z14CheckIniDevPIDP8CManager+0x3e>
  404e1b:	c9                   	leave  
  404e1c:	c3                   	ret    

0000000000404e1d <_Z15EndlessScanLoopP8CManager>:
  404e1d:	55                   	push   %rbp
  404e1e:	48 89 e5             	mov    %rsp,%rbp
  404e21:	48 83 ec 10          	sub    $0x10,%rsp
  404e25:	48 89 7d f8          	mov    %rdi,-0x8(%rbp)
  404e29:	8b 05 c1 67 23 00    	mov    0x2367c1(%rip),%eax        # 63b5f0 <DebugLevel>
  404e2f:	83 e0 01             	and    $0x1,%eax
  404e32:	85 c0                	test   %eax,%eax
  404e34:	74 19                	je     404e4f <_Z15EndlessScanLoopP8CManager+0x32>
  404e36:	ba 40 02 43 00       	mov    $0x430240,%edx
  404e3b:	be dc f5 42 00       	mov    $0x42f5dc,%esi
  404e40:	bf 01 00 00 00       	mov    $0x1,%edi
  404e45:	b8 00 00 00 00       	mov    $0x0,%eax
  404e4a:	e8 6d 9e 02 00       	call   42ecbc <_Z10DebugPrintiPKcz>
  404e4f:	48 8b 45 f8          	mov    -0x8(%rbp),%rax
  404e53:	48 8b 40 08          	mov    0x8(%rax),%rax
  404e57:	8b 80 e0 01 00 00    	mov    0x1e0(%rax),%eax
  404e5d:	69 c0 e8 03 00 00    	imul   $0x3e8,%eax,%eax
  404e63:	89 c7                	mov    %eax,%edi
  404e65:	e8 36 dd ff ff       	call   402ba0 <usleep@plt>
  404e6a:	0f b6 05 1f 68 23 00 	movzbl 0x23681f(%rip),%eax        # 63b690 <bDeviceExistCheck>
  404e71:	84 c0                	test   %al,%al
  404e73:	74 13                	je     404e88 <_Z15EndlessScanLoopP8CManager+0x6b>
  404e75:	48 8b 45 f8          	mov    -0x8(%rbp),%rax
  404e79:	48 89 c7             	mov    %rax,%rdi
  404e7c:	e8 fb fd ff ff       	call   404c7c <_Z14DevicePnPCheckP8CManager>
  404e81:	c6 05 08 68 23 00 00 	movb   $0x0,0x236808(%rip)        # 63b690 <bDeviceExistCheck>
  404e88:	48 8b 45 f8          	mov    -0x8(%rbp),%rax
  404e8c:	0f b7 50 10          	movzwl 0x10(%rax),%edx
  404e90:	48 8b 45 f8          	mov    -0x8(%rbp),%rax
  404e94:	48 8b 40 08          	mov    0x8(%rax),%rax
  404e98:	0f b6 80 c9 01 00 00 	movzbl 0x1c9(%rax),%eax
  404e9f:	66 98                	cbtw   
  404ea1:	66 39 c2             	cmp    %ax,%dx
  404ea4:	0f 8d be 00 00 00    	jge    404f68 <_Z15EndlessScanLoopP8CManager+0x14b>
  404eaa:	0f b6 05 df 67 23 00 	movzbl 0x2367df(%rip),%eax        # 63b690 <bDeviceExistCheck>
  404eb1:	83 f0 01             	xor    $0x1,%eax
  404eb4:	84 c0                	test   %al,%al
  404eb6:	0f 84 ac 00 00 00    	je     404f68 <_Z15EndlessScanLoopP8CManager+0x14b>
  404ebc:	48 8b 45 f8          	mov    -0x8(%rbp),%rax
  404ec0:	48 8b 40 08          	mov    0x8(%rax),%rax
  404ec4:	0f b6 80 d8 01 00 00 	movzbl 0x1d8(%rax),%eax
  404ecb:	3c 01                	cmp    $0x1,%al
  404ecd:	74 13                	je     404ee2 <_Z15EndlessScanLoopP8CManager+0xc5>
  404ecf:	48 8b 45 f8          	mov    -0x8(%rbp),%rax
  404ed3:	48 8b 40 08          	mov    0x8(%rax),%rax
  404ed7:	0f b6 80 d8 01 00 00 	movzbl 0x1d8(%rax),%eax
  404ede:	84 c0                	test   %al,%al
  404ee0:	75 22                	jne    404f04 <_Z15EndlessScanLoopP8CManager+0xe7>
  404ee2:	bf 6f fe 42 00       	mov    $0x42fe6f,%edi
  404ee7:	e8 92 ff 01 00       	call   424e7e <_Z15CheckVIDinlsusbPc>
  404eec:	48 8b 45 f8          	mov    -0x8(%rbp),%rax
  404ef0:	48 89 c7             	mov    %rax,%rdi
  404ef3:	e8 44 fe ff ff       	call   404d3c <_Z14CheckIniDevPIDP8CManager>
  404ef8:	48 8b 45 f8          	mov    -0x8(%rbp),%rax
  404efc:	48 89 c7             	mov    %rax,%rdi
  404eff:	e8 02 12 00 00       	call   406106 <_ZN8CManager13ScanUSBDeviceEv>
  404f04:	48 8b 45 f8          	mov    -0x8(%rbp),%rax
  404f08:	48 8b 40 08          	mov    0x8(%rax),%rax
  404f0c:	0f b6 80 d8 01 00 00 	movzbl 0x1d8(%rax),%eax
  404f13:	3c 02                	cmp    $0x2,%al
  404f15:	74 13                	je     404f2a <_Z15EndlessScanLoopP8CManager+0x10d>
  404f17:	48 8b 45 f8          	mov    -0x8(%rbp),%rax
  404f1b:	48 8b 40 08          	mov    0x8(%rax),%rax
  404f1f:	0f b6 80 d8 01 00 00 	movzbl 0x1d8(%rax),%eax
  404f26:	84 c0                	test   %al,%al
  404f28:	75 0c                	jne    404f36 <_Z15EndlessScanLoopP8CManager+0x119>
  404f2a:	48 8b 45 f8          	mov    -0x8(%rbp),%rax
  404f2e:	48 89 c7             	mov    %rax,%rdi
  404f31:	e8 92 20 00 00       	call   406fc8 <_ZN8CManager15ScanRS232DeviceEv>
  404f36:	48 8b 45 f8          	mov    -0x8(%rbp),%rax
  404f3a:	48 8b 40 08          	mov    0x8(%rax),%rax
  404f3e:	0f b6 80 d8 01 00 00 	movzbl 0x1d8(%rax),%eax
  404f45:	3c 03                	cmp    $0x3,%al
  404f47:	74 13                	je     404f5c <_Z15EndlessScanLoopP8CManager+0x13f>
  404f49:	48 8b 45 f8          	mov    -0x8(%rbp),%rax
  404f4d:	48 8b 40 08          	mov    0x8(%rax),%rax
  404f51:	0f b6 80 d8 01 00 00 	movzbl 0x1d8(%rax),%eax
  404f58:	84 c0                	test   %al,%al
  404f5a:	75 0c                	jne    404f68 <_Z15EndlessScanLoopP8CManager+0x14b>
  404f5c:	48 8b 45 f8          	mov    -0x8(%rbp),%rax
  404f60:	48 89 c7             	mov    %rax,%rdi
  404f63:	e8 46 1e 00 00       	call   406dae <_ZN8CManager13ScanPS2DeviceEv>
  404f68:	48 8b 45 f8          	mov    -0x8(%rbp),%rax
  404f6c:	48 8b 40 08          	mov    0x8(%rax),%rax
  404f70:	8b 80 e4 01 00 00    	mov    0x1e4(%rax),%eax
  404f76:	69 c0 e8 03 00 00    	imul   $0x3e8,%eax,%eax
  404f7c:	89 c7                	mov    %eax,%edi
  404f7e:	e8 1d dc ff ff       	call   402ba0 <usleep@plt>
  404f83:	e9 e2 fe ff ff       	jmp    404e6a <_Z15EndlessScanLoopP8CManager+0x4d>

0000000000404f88 <_Z13DestroyObjectP8CManager>:
  404f88:	55                   	push   %rbp
  404f89:	48 89 e5             	mov    %rsp,%rbp
  404f8c:	53                   	push   %rbx
  404f8d:	48 83 ec 18          	sub    $0x18,%rsp
  404f91:	48 89 7d e8          	mov    %rdi,-0x18(%rbp)
  404f95:	48 83 7d e8 00       	cmpq   $0x0,-0x18(%rbp)
  404f9a:	74 25                	je     404fc1 <_Z13DestroyObjectP8CManager+0x39>
  404f9c:	48 8b 45 e8          	mov    -0x18(%rbp),%rax
  404fa0:	48 89 c7             	mov    %rax,%rdi
  404fa3:	e8 32 2f 00 00       	call   407eda <_ZN8CManager21RemoveManagerShareMemEv>
  404fa8:	48 8b 5d e8          	mov    -0x18(%rbp),%rbx
  404fac:	48 85 db             	test   %rbx,%rbx
  404faf:	74 10                	je     404fc1 <_Z13DestroyObjectP8CManager+0x39>
  404fb1:	48 89 df             	mov    %rbx,%rdi
  404fb4:	e8 29 30 00 00       	call   407fe2 <_ZN8CManagerD1Ev>
  404fb9:	48 89 df             	mov    %rbx,%rdi
  404fbc:	e8 df d9 ff ff       	call   4029a0 <_ZdlPv@plt>
  404fc1:	48 83 c4 18          	add    $0x18,%rsp
  404fc5:	5b                   	pop    %rbx
  404fc6:	5d                   	pop    %rbp
  404fc7:	c3                   	ret    

0000000000404fc8 <_Z16CheckProcessNamei>:
  404fc8:	55                   	push   %rbp
  404fc9:	48 89 e5             	mov    %rsp,%rbp
  404fcc:	53                   	push   %rbx
  404fcd:	48 81 ec b8 00 00 00 	sub    $0xb8,%rsp
  404fd4:	89 bd 4c ff ff ff    	mov    %edi,-0xb4(%rbp)
  404fda:	64 48 8b 04 25 28 00 	mov    %fs:0x28,%rax
  404fe1:	00 00 
  404fe3:	48 89 45 e8          	mov    %rax,-0x18(%rbp)
  404fe7:	31 c0                	xor    %eax,%eax
  404fe9:	48 8d 75 a0          	lea    -0x60(%rbp),%rsi
  404fed:	b8 00 00 00 00       	mov    $0x0,%eax
  404ff2:	ba 08 00 00 00       	mov    $0x8,%edx
  404ff7:	48 89 f7             	mov    %rsi,%rdi
  404ffa:	48 89 d1             	mov    %rdx,%rcx
  404ffd:	f3 48 ab             	rep stos %rax,%es:(%rdi)
  405000:	8b 95 4c ff ff ff    	mov    -0xb4(%rbp),%edx
  405006:	48 8d 45 a0          	lea    -0x60(%rbp),%rax
  40500a:	be 74 fe 42 00       	mov    $0x42fe74,%esi
  40500f:	48 89 c7             	mov    %rax,%rdi
  405012:	b8 00 00 00 00       	mov    $0x0,%eax
  405017:	e8 c4 d6 ff ff       	call   4026e0 <sprintf@plt>
  40501c:	48 8d 45 a0          	lea    -0x60(%rbp),%rax
  405020:	be 10 f6 42 00       	mov    $0x42f610,%esi
  405025:	48 89 c7             	mov    %rax,%rdi
  405028:	e8 23 da ff ff       	call   402a50 <fopen@plt>
  40502d:	48 89 85 58 ff ff ff 	mov    %rax,-0xa8(%rbp)
  405034:	48 83 bd 58 ff ff ff 	cmpq   $0x0,-0xa8(%rbp)
  40503b:	00 
  40503c:	75 28                	jne    405066 <_Z16CheckProcessNamei+0x9e>
  40503e:	8b 05 ac 65 23 00    	mov    0x2365ac(%rip),%eax        # 63b5f0 <DebugLevel>
  405044:	83 e0 01             	and    $0x1,%eax
  405047:	85 c0                	test   %eax,%eax
  405049:	74 14                	je     40505f <_Z16CheckProcessNamei+0x97>
  40504b:	be 84 fe 42 00       	mov    $0x42fe84,%esi
  405050:	bf 01 00 00 00       	mov    $0x1,%edi
  405055:	b8 00 00 00 00       	mov    $0x0,%eax
  40505a:	e8 5d 9c 02 00       	call   42ecbc <_Z10DebugPrintiPKcz>
  40505f:	b8 00 00 00 00       	mov    $0x0,%eax
  405064:	eb 76                	jmp    4050dc <_Z16CheckProcessNamei+0x114>
  405066:	48 8d 4d 80          	lea    -0x80(%rbp),%rcx
  40506a:	48 8d 95 60 ff ff ff 	lea    -0xa0(%rbp),%rdx
  405071:	48 8b 85 58 ff ff ff 	mov    -0xa8(%rbp),%rax
  405078:	be 26 f9 42 00       	mov    $0x42f926,%esi
  40507d:	48 89 c7             	mov    %rax,%rdi
  405080:	b8 00 00 00 00       	mov    $0x0,%eax
  405085:	e8 b6 dd ff ff       	call   402e40 <fscanf@plt>
  40508a:	48 8b 85 58 ff ff ff 	mov    -0xa8(%rbp),%rax
  405091:	48 89 c7             	mov    %rax,%rdi
  405094:	e8 47 d9 ff ff       	call   4029e0 <fclose@plt>
  405099:	ba 07 00 00 00       	mov    $0x7,%edx
  40509e:	48 8d 85 60 ff ff ff 	lea    -0xa0(%rbp),%rax
  4050a5:	be d2 f9 42 00       	mov    $0x42f9d2,%esi
  4050aa:	48 89 c7             	mov    %rax,%rdi
  4050ad:	e8 de d6 ff ff       	call   402790 <strncmp@plt>
  4050b2:	85 c0                	test   %eax,%eax
  4050b4:	74 1a                	je     4050d0 <_Z16CheckProcessNamei+0x108>
  4050b6:	ba 07 00 00 00       	mov    $0x7,%edx
  4050bb:	48 8d 45 80          	lea    -0x80(%rbp),%rax
  4050bf:	be d2 f9 42 00       	mov    $0x42f9d2,%esi
  4050c4:	48 89 c7             	mov    %rax,%rdi
  4050c7:	e8 c4 d6 ff ff       	call   402790 <strncmp@plt>
  4050cc:	85 c0                	test   %eax,%eax
  4050ce:	75 07                	jne    4050d7 <_Z16CheckProcessNamei+0x10f>
  4050d0:	b8 01 00 00 00       	mov    $0x1,%eax
  4050d5:	eb 05                	jmp    4050dc <_Z16CheckProcessNamei+0x114>
  4050d7:	b8 00 00 00 00       	mov    $0x0,%eax
  4050dc:	48 8b 5d e8          	mov    -0x18(%rbp),%rbx
  4050e0:	64 48 33 1c 25 28 00 	xor    %fs:0x28,%rbx
  4050e7:	00 00 
  4050e9:	74 05                	je     4050f0 <_Z16CheckProcessNamei+0x128>
  4050eb:	e8 30 d9 ff ff       	call   402a20 <__stack_chk_fail@plt>
  4050f0:	48 81 c4 b8 00 00 00 	add    $0xb8,%rsp
  4050f7:	5b                   	pop    %rbx
  4050f8:	5d                   	pop    %rbp
  4050f9:	c3                   	ret    

00000000004050fa <_Z15IsDriverRunningP15tageDaemonParam>:
  4050fa:	55                   	push   %rbp
  4050fb:	48 89 e5             	mov    %rsp,%rbp
  4050fe:	48 83 ec 20          	sub    $0x20,%rsp
  405102:	48 89 7d e8          	mov    %rdi,-0x18(%rbp)
  405106:	48 c7 45 f8 00 00 00 	movq   $0x0,-0x8(%rbp)
  40510d:	00 
  40510e:	be 10 f6 42 00       	mov    $0x42f610,%esi
  405113:	bf 9e fe 42 00       	mov    $0x42fe9e,%edi
  405118:	e8 33 d9 ff ff       	call   402a50 <fopen@plt>
  40511d:	48 89 45 f8          	mov    %rax,-0x8(%rbp)
  405121:	48 83 7d f8 00       	cmpq   $0x0,-0x8(%rbp)
  405126:	75 2b                	jne    405153 <_Z15IsDriverRunningP15tageDaemonParam+0x59>
  405128:	8b 05 c2 64 23 00    	mov    0x2364c2(%rip),%eax        # 63b5f0 <DebugLevel>
  40512e:	83 e0 02             	and    $0x2,%eax
  405131:	85 c0                	test   %eax,%eax
  405133:	74 19                	je     40514e <_Z15IsDriverRunningP15tageDaemonParam+0x54>
  405135:	ba 9e fe 42 00       	mov    $0x42fe9e,%edx
  40513a:	be ac fe 42 00       	mov    $0x42feac,%esi
  40513f:	bf 02 00 00 00       	mov    $0x2,%edi
  405144:	b8 00 00 00 00       	mov    $0x0,%eax
  405149:	e8 6e 9b 02 00       	call   42ecbc <_Z10DebugPrintiPKcz>
  40514e:	e9 96 01 00 00       	jmp    4052e9 <_Z15IsDriverRunningP15tageDaemonParam+0x1ef>
  405153:	48 8d 55 f0          	lea    -0x10(%rbp),%rdx
  405157:	48 8b 45 f8          	mov    -0x8(%rbp),%rax
  40515b:	be c4 fe 42 00       	mov    $0x42fec4,%esi
  405160:	48 89 c7             	mov    %rax,%rdi
  405163:	b8 00 00 00 00       	mov    $0x0,%eax
  405168:	e8 d3 dc ff ff       	call   402e40 <fscanf@plt>
  40516d:	48 8b 45 f8          	mov    -0x8(%rbp),%rax
  405171:	48 89 c7             	mov    %rax,%rdi
  405174:	e8 67 d8 ff ff       	call   4029e0 <fclose@plt>
  405179:	e8 82 da ff ff       	call   402c00 <getpid@plt>
  40517e:	89 45 f4             	mov    %eax,-0xc(%rbp)
  405181:	8b 05 69 64 23 00    	mov    0x236469(%rip),%eax        # 63b5f0 <DebugLevel>
  405187:	83 e0 01             	and    $0x1,%eax
  40518a:	85 c0                	test   %eax,%eax
  40518c:	74 19                	je     4051a7 <_Z15IsDriverRunningP15tageDaemonParam+0xad>
  40518e:	8b 45 f4             	mov    -0xc(%rbp),%eax
  405191:	89 c2                	mov    %eax,%edx
  405193:	be c7 fe 42 00       	mov    $0x42fec7,%esi
  405198:	bf 01 00 00 00       	mov    $0x1,%edi
  40519d:	b8 00 00 00 00       	mov    $0x0,%eax
  4051a2:	e8 15 9b 02 00       	call   42ecbc <_Z10DebugPrintiPKcz>
  4051a7:	8b 45 f0             	mov    -0x10(%rbp),%eax
  4051aa:	be 00 00 00 00       	mov    $0x0,%esi
  4051af:	89 c7                	mov    %eax,%edi
  4051b1:	e8 fa d9 ff ff       	call   402bb0 <kill@plt>
  4051b6:	85 c0                	test   %eax,%eax
  4051b8:	75 1d                	jne    4051d7 <_Z15IsDriverRunningP15tageDaemonParam+0xdd>
  4051ba:	8b 45 f0             	mov    -0x10(%rbp),%eax
  4051bd:	3b 45 f4             	cmp    -0xc(%rbp),%eax
  4051c0:	74 15                	je     4051d7 <_Z15IsDriverRunningP15tageDaemonParam+0xdd>
  4051c2:	8b 45 f0             	mov    -0x10(%rbp),%eax
  4051c5:	89 c7                	mov    %eax,%edi
  4051c7:	e8 fc fd ff ff       	call   404fc8 <_Z16CheckProcessNamei>
  4051cc:	3c 01                	cmp    $0x1,%al
  4051ce:	75 07                	jne    4051d7 <_Z15IsDriverRunningP15tageDaemonParam+0xdd>
  4051d0:	b8 01 00 00 00       	mov    $0x1,%eax
  4051d5:	eb 05                	jmp    4051dc <_Z15IsDriverRunningP15tageDaemonParam+0xe2>
  4051d7:	b8 00 00 00 00       	mov    $0x0,%eax
  4051dc:	84 c0                	test   %al,%al
  4051de:	0f 84 ef 00 00 00    	je     4052d3 <_Z15IsDriverRunningP15tageDaemonParam+0x1d9>
  4051e4:	8b 05 06 64 23 00    	mov    0x236406(%rip),%eax        # 63b5f0 <DebugLevel>
  4051ea:	83 e0 01             	and    $0x1,%eax
  4051ed:	85 c0                	test   %eax,%eax
  4051ef:	74 19                	je     40520a <_Z15IsDriverRunningP15tageDaemonParam+0x110>
  4051f1:	8b 45 f0             	mov    -0x10(%rbp),%eax
  4051f4:	89 c2                	mov    %eax,%edx
  4051f6:	be d8 fe 42 00       	mov    $0x42fed8,%esi
  4051fb:	bf 01 00 00 00       	mov    $0x1,%edi
  405200:	b8 00 00 00 00       	mov    $0x0,%eax
  405205:	e8 b2 9a 02 00       	call   42ecbc <_Z10DebugPrintiPKcz>
  40520a:	48 8b 45 e8          	mov    -0x18(%rbp),%rax
  40520e:	0f b6 40 03          	movzbl 0x3(%rax),%eax
  405212:	84 c0                	test   %al,%al
  405214:	74 43                	je     405259 <_Z15IsDriverRunningP15tageDaemonParam+0x15f>
  405216:	8b 45 f0             	mov    -0x10(%rbp),%eax
  405219:	be 09 00 00 00       	mov    $0x9,%esi
  40521e:	89 c7                	mov    %eax,%edi
  405220:	e8 8b d9 ff ff       	call   402bb0 <kill@plt>
  405225:	8b 05 c5 63 23 00    	mov    0x2363c5(%rip),%eax        # 63b5f0 <DebugLevel>
  40522b:	83 e0 01             	and    $0x1,%eax
  40522e:	85 c0                	test   %eax,%eax
  405230:	74 22                	je     405254 <_Z15IsDriverRunningP15tageDaemonParam+0x15a>
  405232:	e8 c9 d9 ff ff       	call   402c00 <getpid@plt>
  405237:	89 c2                	mov    %eax,%edx
  405239:	8b 45 f0             	mov    -0x10(%rbp),%eax
  40523c:	89 d1                	mov    %edx,%ecx
  40523e:	89 c2                	mov    %eax,%edx
  405240:	be 00 ff 42 00       	mov    $0x42ff00,%esi
  405245:	bf 01 00 00 00       	mov    $0x1,%edi
  40524a:	b8 00 00 00 00       	mov    $0x0,%eax
  40524f:	e8 68 9a 02 00       	call   42ecbc <_Z10DebugPrintiPKcz>
  405254:	e9 90 00 00 00       	jmp    4052e9 <_Z15IsDriverRunningP15tageDaemonParam+0x1ef>
  405259:	48 8b 45 e8          	mov    -0x18(%rbp),%rax
  40525d:	0f b6 00             	movzbl (%rax),%eax
  405260:	84 c0                	test   %al,%al
  405262:	74 3f                	je     4052a3 <_Z15IsDriverRunningP15tageDaemonParam+0x1a9>
  405264:	8b 45 f0             	mov    -0x10(%rbp),%eax
  405267:	be 09 00 00 00       	mov    $0x9,%esi
  40526c:	89 c7                	mov    %eax,%edi
  40526e:	e8 3d d9 ff ff       	call   402bb0 <kill@plt>
  405273:	8b 05 77 63 23 00    	mov    0x236377(%rip),%eax        # 63b5f0 <DebugLevel>
  405279:	83 e0 01             	and    $0x1,%eax
  40527c:	85 c0                	test   %eax,%eax
  40527e:	74 19                	je     405299 <_Z15IsDriverRunningP15tageDaemonParam+0x19f>
  405280:	8b 45 f0             	mov    -0x10(%rbp),%eax
  405283:	89 c2                	mov    %eax,%edx
  405285:	be 42 ff 42 00       	mov    $0x42ff42,%esi
  40528a:	bf 01 00 00 00       	mov    $0x1,%edi
  40528f:	b8 00 00 00 00       	mov    $0x0,%eax
  405294:	e8 23 9a 02 00       	call   42ecbc <_Z10DebugPrintiPKcz>
  405299:	bf 00 00 00 00       	mov    $0x0,%edi
  40529e:	e8 0d d8 ff ff       	call   402ab0 <exit@plt>
  4052a3:	8b 05 47 63 23 00    	mov    0x236347(%rip),%eax        # 63b5f0 <DebugLevel>
  4052a9:	83 e0 01             	and    $0x1,%eax
  4052ac:	85 c0                	test   %eax,%eax
  4052ae:	74 19                	je     4052c9 <_Z15IsDriverRunningP15tageDaemonParam+0x1cf>
  4052b0:	ba d2 f9 42 00       	mov    $0x42f9d2,%edx
  4052b5:	be 5d ff 42 00       	mov    $0x42ff5d,%esi
  4052ba:	bf 01 00 00 00       	mov    $0x1,%edi
  4052bf:	b8 00 00 00 00       	mov    $0x0,%eax
  4052c4:	e8 f3 99 02 00       	call   42ecbc <_Z10DebugPrintiPKcz>
  4052c9:	bf 00 00 00 00       	mov    $0x0,%edi
  4052ce:	e8 dd d7 ff ff       	call   402ab0 <exit@plt>
  4052d3:	48 8b 45 e8          	mov    -0x18(%rbp),%rax
  4052d7:	0f b6 00             	movzbl (%rax),%eax
  4052da:	84 c0                	test   %al,%al
  4052dc:	74 0a                	je     4052e8 <_Z15IsDriverRunningP15tageDaemonParam+0x1ee>
  4052de:	bf 00 00 00 00       	mov    $0x0,%edi
  4052e3:	e8 c8 d7 ff ff       	call   402ab0 <exit@plt>
  4052e8:	90                   	nop
  4052e9:	c9                   	leave  
  4052ea:	c3                   	ret    

00000000004052eb <_Z20WriteProcessIDtoFilev>:
  4052eb:	55                   	push   %rbp
  4052ec:	48 89 e5             	mov    %rsp,%rbp
  4052ef:	48 83 ec 30          	sub    $0x30,%rsp
  4052f3:	64 48 8b 04 25 28 00 	mov    %fs:0x28,%rax
  4052fa:	00 00 
  4052fc:	48 89 45 f8          	mov    %rax,-0x8(%rbp)
  405300:	31 c0                	xor    %eax,%eax
  405302:	48 c7 45 d8 00 00 00 	movq   $0x0,-0x28(%rbp)
  405309:	00 
  40530a:	48 c7 45 e0 00 00 00 	movq   $0x0,-0x20(%rbp)
  405311:	00 
  405312:	66 c7 45 e8 00 00    	movw   $0x0,-0x18(%rbp)
  405318:	e8 e3 d8 ff ff       	call   402c00 <getpid@plt>
  40531d:	89 45 d4             	mov    %eax,-0x2c(%rbp)
  405320:	8b 55 d4             	mov    -0x2c(%rbp),%edx
  405323:	48 8d 45 e0          	lea    -0x20(%rbp),%rax
  405327:	be 7b ff 42 00       	mov    $0x42ff7b,%esi
  40532c:	48 89 c7             	mov    %rax,%rdi
  40532f:	b8 00 00 00 00       	mov    $0x0,%eax
  405334:	e8 a7 d3 ff ff       	call   4026e0 <sprintf@plt>
  405339:	be 7f ff 42 00       	mov    $0x42ff7f,%esi
  40533e:	bf 9e fe 42 00       	mov    $0x42fe9e,%edi
  405343:	e8 08 d7 ff ff       	call   402a50 <fopen@plt>
  405348:	48 89 45 d8          	mov    %rax,-0x28(%rbp)
  40534c:	48 83 7d d8 00       	cmpq   $0x0,-0x28(%rbp)
  405351:	75 28                	jne    40537b <_Z20WriteProcessIDtoFilev+0x90>
  405353:	8b 05 97 62 23 00    	mov    0x236297(%rip),%eax        # 63b5f0 <DebugLevel>
  405359:	83 e0 01             	and    $0x1,%eax
  40535c:	85 c0                	test   %eax,%eax
  40535e:	74 44                	je     4053a4 <_Z20WriteProcessIDtoFilev+0xb9>
  405360:	ba 9e fe 42 00       	mov    $0x42fe9e,%edx
  405365:	be 88 ff 42 00       	mov    $0x42ff88,%esi
  40536a:	bf 01 00 00 00       	mov    $0x1,%edi
  40536f:	b8 00 00 00 00       	mov    $0x0,%eax
  405374:	e8 43 99 02 00       	call   42ecbc <_Z10DebugPrintiPKcz>
  405379:	eb 29                	jmp    4053a4 <_Z20WriteProcessIDtoFilev+0xb9>
  40537b:	48 8b 55 d8          	mov    -0x28(%rbp),%rdx
  40537f:	48 8d 45 e0          	lea    -0x20(%rbp),%rax
  405383:	48 89 d1             	mov    %rdx,%rcx
  405386:	ba 01 00 00 00       	mov    $0x1,%edx
  40538b:	be 0a 00 00 00       	mov    $0xa,%esi
  405390:	48 89 c7             	mov    %rax,%rdi
  405393:	e8 d8 da ff ff       	call   402e70 <fwrite@plt>
  405398:	48 8b 45 d8          	mov    -0x28(%rbp),%rax
  40539c:	48 89 c7             	mov    %rax,%rdi
  40539f:	e8 3c d6 ff ff       	call   4029e0 <fclose@plt>
  4053a4:	48 8b 45 f8          	mov    -0x8(%rbp),%rax
  4053a8:	64 48 33 04 25 28 00 	xor    %fs:0x28,%rax
  4053af:	00 00 
  4053b1:	74 05                	je     4053b8 <_Z20WriteProcessIDtoFilev+0xcd>
  4053b3:	e8 68 d6 ff ff       	call   402a20 <__stack_chk_fail@plt>
  4053b8:	c9                   	leave  
  4053b9:	c3                   	ret    

00000000004053ba <_Z16GetKernelVersionv>:
  4053ba:	55                   	push   %rbp
  4053bb:	48 89 e5             	mov    %rsp,%rbp
  4053be:	48 81 ec 20 01 00 00 	sub    $0x120,%rsp
  4053c5:	64 48 8b 04 25 28 00 	mov    %fs:0x28,%rax
  4053cc:	00 00 
  4053ce:	48 89 45 f8          	mov    %rax,-0x8(%rbp)
  4053d2:	31 c0                	xor    %eax,%eax
  4053d4:	8b 05 16 62 23 00    	mov    0x236216(%rip),%eax        # 63b5f0 <DebugLevel>
  4053da:	83 e0 01             	and    $0x1,%eax
  4053dd:	85 c0                	test   %eax,%eax
  4053df:	74 19                	je     4053fa <_Z16GetKernelVersionv+0x40>
  4053e1:	ba 50 02 43 00       	mov    $0x430250,%edx
  4053e6:	be dc f5 42 00       	mov    $0x42f5dc,%esi
  4053eb:	bf 01 00 00 00       	mov    $0x1,%edi
  4053f0:	b8 00 00 00 00       	mov    $0x0,%eax
  4053f5:	e8 c2 98 02 00       	call   42ecbc <_Z10DebugPrintiPKcz>
  4053fa:	48 8d b5 f0 fe ff ff 	lea    -0x110(%rbp),%rsi
  405401:	b8 00 00 00 00       	mov    $0x0,%eax
  405406:	ba 08 00 00 00       	mov    $0x8,%edx
  40540b:	48 89 f7             	mov    %rsi,%rdi
  40540e:	48 89 d1             	mov    %rdx,%rcx
  405411:	f3 48 ab             	rep stos %rax,%es:(%rdi)
  405414:	48 8d 85 f0 fe ff ff 	lea    -0x110(%rbp),%rax
  40541b:	ba e8 f5 42 00       	mov    $0x42f5e8,%edx
  405420:	be ed f5 42 00       	mov    $0x42f5ed,%esi
  405425:	48 89 c7             	mov    %rax,%rdi
  405428:	b8 00 00 00 00       	mov    $0x0,%eax
  40542d:	e8 ae d2 ff ff       	call   4026e0 <sprintf@plt>
  405432:	48 8d b5 70 ff ff ff 	lea    -0x90(%rbp),%rsi
  405439:	b8 00 00 00 00       	mov    $0x0,%eax
  40543e:	ba 10 00 00 00       	mov    $0x10,%edx
  405443:	48 89 f7             	mov    %rsi,%rdi
  405446:	48 89 d1             	mov    %rdx,%rcx
  405449:	f3 48 ab             	rep stos %rax,%es:(%rdi)
  40544c:	48 8d 85 70 ff ff ff 	lea    -0x90(%rbp),%rax
  405453:	ba b6 ff 42 00       	mov    $0x42ffb6,%edx
  405458:	be c4 ff 42 00       	mov    $0x42ffc4,%esi
  40545d:	48 89 c7             	mov    %rax,%rdi
  405460:	b8 00 00 00 00       	mov    $0x0,%eax
  405465:	e8 76 d2 ff ff       	call   4026e0 <sprintf@plt>
  40546a:	48 8d 95 f0 fe ff ff 	lea    -0x110(%rbp),%rdx
  405471:	48 8d 85 70 ff ff ff 	lea    -0x90(%rbp),%rax
  405478:	48 89 d6             	mov    %rdx,%rsi
  40547b:	48 89 c7             	mov    %rax,%rdi
  40547e:	e8 ca 8e 02 00       	call   42e34d <_Z11SendCommandPcS_>
  405483:	48 89 85 e0 fe ff ff 	mov    %rax,-0x120(%rbp)
  40548a:	48 83 bd e0 fe ff ff 	cmpq   $0x0,-0x120(%rbp)
  405491:	00 
  405492:	75 2a                	jne    4054be <_Z16GetKernelVersionv+0x104>
  405494:	8b 05 56 61 23 00    	mov    0x236156(%rip),%eax        # 63b5f0 <DebugLevel>
  40549a:	83 e0 01             	and    $0x1,%eax
  40549d:	85 c0                	test   %eax,%eax
  40549f:	0f 84 02 01 00 00    	je     4055a7 <_Z16GetKernelVersionv+0x1ed>
  4054a5:	be cb ff 42 00       	mov    $0x42ffcb,%esi
  4054aa:	bf 01 00 00 00       	mov    $0x1,%edi
  4054af:	b8 00 00 00 00       	mov    $0x0,%eax
  4054b4:	e8 03 98 02 00       	call   42ecbc <_Z10DebugPrintiPKcz>
  4054b9:	e9 e9 00 00 00       	jmp    4055a7 <_Z16GetKernelVersionv+0x1ed>
  4054be:	48 8b 95 e0 fe ff ff 	mov    -0x120(%rbp),%rdx
  4054c5:	48 8d 85 30 ff ff ff 	lea    -0xd0(%rbp),%rax
  4054cc:	48 89 d1             	mov    %rdx,%rcx
  4054cf:	ba 40 00 00 00       	mov    $0x40,%edx
  4054d4:	be 01 00 00 00       	mov    $0x1,%esi
  4054d9:	48 89 c7             	mov    %rax,%rdi
  4054dc:	e8 5f d7 ff ff       	call   402c40 <fread@plt>
  4054e1:	48 8d 85 30 ff ff ff 	lea    -0xd0(%rbp),%rax
  4054e8:	48 83 c0 0e          	add    $0xe,%rax
  4054ec:	48 89 85 e8 fe ff ff 	mov    %rax,-0x118(%rbp)
  4054f3:	48 8b 85 e8 fe ff ff 	mov    -0x118(%rbp),%rax
  4054fa:	be 21 f6 42 00       	mov    $0x42f621,%esi
  4054ff:	48 89 c7             	mov    %rax,%rdi
  405502:	e8 c9 d7 ff ff       	call   402cd0 <strtok@plt>
  405507:	48 89 c7             	mov    %rax,%rdi
  40550a:	e8 b1 d7 ff ff       	call   402cc0 <atoi@plt>
  40550f:	89 05 6b 61 23 00    	mov    %eax,0x23616b(%rip)        # 63b680 <Kernel_Major>
  405515:	be 21 f6 42 00       	mov    $0x42f621,%esi
  40551a:	bf 00 00 00 00       	mov    $0x0,%edi
  40551f:	e8 ac d7 ff ff       	call   402cd0 <strtok@plt>
  405524:	48 89 c7             	mov    %rax,%rdi
  405527:	e8 94 d7 ff ff       	call   402cc0 <atoi@plt>
  40552c:	89 05 52 61 23 00    	mov    %eax,0x236152(%rip)        # 63b684 <Kernel_Minor>
  405532:	be 21 f6 42 00       	mov    $0x42f621,%esi
  405537:	bf 00 00 00 00       	mov    $0x0,%edi
  40553c:	e8 8f d7 ff ff       	call   402cd0 <strtok@plt>
  405541:	48 89 c7             	mov    %rax,%rdi
  405544:	e8 77 d7 ff ff       	call   402cc0 <atoi@plt>
  405549:	89 05 39 61 23 00    	mov    %eax,0x236139(%rip)        # 63b688 <Kernel_Release>
  40554f:	8b 05 9b 60 23 00    	mov    0x23609b(%rip),%eax        # 63b5f0 <DebugLevel>
  405555:	83 e0 01             	and    $0x1,%eax
  405558:	85 c0                	test   %eax,%eax
  40555a:	74 2d                	je     405589 <_Z16GetKernelVersionv+0x1cf>
  40555c:	8b 0d 26 61 23 00    	mov    0x236126(%rip),%ecx        # 63b688 <Kernel_Release>
  405562:	8b 15 1c 61 23 00    	mov    0x23611c(%rip),%edx        # 63b684 <Kernel_Minor>
  405568:	8b 05 12 61 23 00    	mov    0x236112(%rip),%eax        # 63b680 <Kernel_Major>
  40556e:	41 89 c8             	mov    %ecx,%r8d
  405571:	89 d1                	mov    %edx,%ecx
  405573:	89 c2                	mov    %eax,%edx
  405575:	be e5 ff 42 00       	mov    $0x42ffe5,%esi
  40557a:	bf 01 00 00 00       	mov    $0x1,%edi
  40557f:	b8 00 00 00 00       	mov    $0x0,%eax
  405584:	e8 33 97 02 00       	call   42ecbc <_Z10DebugPrintiPKcz>
  405589:	48 8b 85 e0 fe ff ff 	mov    -0x120(%rbp),%rax
  405590:	48 89 c7             	mov    %rax,%rdi
  405593:	e8 48 d4 ff ff       	call   4029e0 <fclose@plt>
  405598:	48 8d 85 f0 fe ff ff 	lea    -0x110(%rbp),%rax
  40559f:	48 89 c7             	mov    %rax,%rdi
  4055a2:	e8 29 d8 ff ff       	call   402dd0 <remove@plt>
  4055a7:	48 8b 45 f8          	mov    -0x8(%rbp),%rax
  4055ab:	64 48 33 04 25 28 00 	xor    %fs:0x28,%rax
  4055b2:	00 00 
  4055b4:	74 05                	je     4055bb <_Z16GetKernelVersionv+0x201>
  4055b6:	e8 65 d4 ff ff       	call   402a20 <__stack_chk_fail@plt>
  4055bb:	c9                   	leave  
  4055bc:	c3                   	ret    

00000000004055bd <_Z16GetUSBBytesShiftv>:
  4055bd:	55                   	push   %rbp
  4055be:	48 89 e5             	mov    %rsp,%rbp
  4055c1:	8b 05 b9 60 23 00    	mov    0x2360b9(%rip),%eax        # 63b680 <Kernel_Major>
  4055c7:	83 f8 02             	cmp    $0x2,%eax
  4055ca:	75 22                	jne    4055ee <_Z16GetUSBBytesShiftv+0x31>
  4055cc:	8b 05 b2 60 23 00    	mov    0x2360b2(%rip),%eax        # 63b684 <Kernel_Minor>
  4055d2:	83 f8 06             	cmp    $0x6,%eax
  4055d5:	75 17                	jne    4055ee <_Z16GetUSBBytesShiftv+0x31>
  4055d7:	8b 05 ab 60 23 00    	mov    0x2360ab(%rip),%eax        # 63b688 <Kernel_Release>
  4055dd:	83 f8 22             	cmp    $0x22,%eax
  4055e0:	7f 0c                	jg     4055ee <_Z16GetUSBBytesShiftv+0x31>
  4055e2:	c7 05 a0 60 23 00 01 	movl   $0x1,0x2360a0(%rip)        # 63b68c <bytesShift>
  4055e9:	00 00 00 
  4055ec:	eb 0a                	jmp    4055f8 <_Z16GetUSBBytesShiftv+0x3b>
  4055ee:	c7 05 94 60 23 00 00 	movl   $0x0,0x236094(%rip)        # 63b68c <bytesShift>
  4055f5:	00 00 00 
  4055f8:	5d                   	pop    %rbp
  4055f9:	c3                   	ret    

00000000004055fa <_Z22SigHandlerRemoveDevicei>:
  4055fa:	55                   	push   %rbp
  4055fb:	48 89 e5             	mov    %rsp,%rbp
  4055fe:	48 83 ec 10          	sub    $0x10,%rsp
  405602:	89 7d fc             	mov    %edi,-0x4(%rbp)
  405605:	83 7d fc 0c          	cmpl   $0xc,-0x4(%rbp)
  405609:	75 28                	jne    405633 <_Z22SigHandlerRemoveDevicei+0x39>
  40560b:	8b 05 df 5f 23 00    	mov    0x235fdf(%rip),%eax        # 63b5f0 <DebugLevel>
  405611:	83 e0 01             	and    $0x1,%eax
  405614:	85 c0                	test   %eax,%eax
  405616:	74 14                	je     40562c <_Z22SigHandlerRemoveDevicei+0x32>
  405618:	be 00 00 43 00       	mov    $0x430000,%esi
  40561d:	bf 01 00 00 00       	mov    $0x1,%edi
  405622:	b8 00 00 00 00       	mov    $0x0,%eax
  405627:	e8 90 96 02 00       	call   42ecbc <_Z10DebugPrintiPKcz>
  40562c:	c6 05 5d 60 23 00 01 	movb   $0x1,0x23605d(%rip)        # 63b690 <bDeviceExistCheck>
  405633:	c9                   	leave  
  405634:	c3                   	ret    

0000000000405635 <_Z11ShowHelpMsgv>:
  405635:	55                   	push   %rbp
  405636:	48 89 e5             	mov    %rsp,%rbp
  405639:	ba d2 f9 42 00       	mov    $0x42f9d2,%edx
  40563e:	be 34 00 43 00       	mov    $0x430034,%esi
  405643:	bf 39 00 43 00       	mov    $0x430039,%edi
  405648:	b8 00 00 00 00       	mov    $0x0,%eax
  40564d:	e8 4e d0 ff ff       	call   4026a0 <printf@plt>
  405652:	be d2 f9 42 00       	mov    $0x42f9d2,%esi
  405657:	bf 49 00 43 00       	mov    $0x430049,%edi
  40565c:	b8 00 00 00 00       	mov    $0x0,%eax
  405661:	e8 3a d0 ff ff       	call   4026a0 <printf@plt>
  405666:	bf 5e 00 43 00       	mov    $0x43005e,%edi
  40566b:	e8 30 d6 ff ff       	call   402ca0 <puts@plt>
  405670:	bf 67 00 43 00       	mov    $0x430067,%edi
  405675:	e8 26 d6 ff ff       	call   402ca0 <puts@plt>
  40567a:	be d2 f9 42 00       	mov    $0x42f9d2,%esi
  40567f:	bf 78 00 43 00       	mov    $0x430078,%edi
  405684:	b8 00 00 00 00       	mov    $0x0,%eax
  405689:	e8 12 d0 ff ff       	call   4026a0 <printf@plt>
  40568e:	be d2 f9 42 00       	mov    $0x42f9d2,%esi
  405693:	bf 98 00 43 00       	mov    $0x430098,%edi
  405698:	b8 00 00 00 00       	mov    $0x0,%eax
  40569d:	e8 fe cf ff ff       	call   4026a0 <printf@plt>
  4056a2:	bf 0a 00 00 00       	mov    $0xa,%edi
  4056a7:	e8 b4 d4 ff ff       	call   402b60 <putchar@plt>
  4056ac:	5d                   	pop    %rbp
  4056ad:	c3                   	ret    

00000000004056ae <_Z8CheckOptP15tageDaemonParam>:
  4056ae:	55                   	push   %rbp
  4056af:	48 89 e5             	mov    %rsp,%rbp
  4056b2:	48 83 ec 10          	sub    $0x10,%rsp
  4056b6:	48 89 7d f8          	mov    %rdi,-0x8(%rbp)
  4056ba:	48 8b 45 f8          	mov    -0x8(%rbp),%rax
  4056be:	0f b6 40 04          	movzbl 0x4(%rax),%eax
  4056c2:	84 c0                	test   %al,%al
  4056c4:	74 0f                	je     4056d5 <_Z8CheckOptP15tageDaemonParam+0x27>
  4056c6:	e8 6a ff ff ff       	call   405635 <_Z11ShowHelpMsgv>
  4056cb:	bf 00 00 00 00       	mov    $0x0,%edi
  4056d0:	e8 db d3 ff ff       	call   402ab0 <exit@plt>
  4056d5:	48 8b 45 f8          	mov    -0x8(%rbp),%rax
  4056d9:	0f b6 00             	movzbl (%rax),%eax
  4056dc:	84 c0                	test   %al,%al
  4056de:	74 20                	je     405700 <_Z8CheckOptP15tageDaemonParam+0x52>
  4056e0:	48 8b 45 f8          	mov    -0x8(%rbp),%rax
  4056e4:	0f b6 40 03          	movzbl 0x3(%rax),%eax
  4056e8:	84 c0                	test   %al,%al
  4056ea:	74 14                	je     405700 <_Z8CheckOptP15tageDaemonParam+0x52>
  4056ec:	bf d0 00 43 00       	mov    $0x4300d0,%edi
  4056f1:	e8 aa d5 ff ff       	call   402ca0 <puts@plt>
  4056f6:	bf 01 00 00 00       	mov    $0x1,%edi
  4056fb:	e8 b0 d3 ff ff       	call   402ab0 <exit@plt>
  405700:	48 8b 45 f8          	mov    -0x8(%rbp),%rax
  405704:	0f b6 40 01          	movzbl 0x1(%rax),%eax
  405708:	84 c0                	test   %al,%al
  40570a:	74 23                	je     40572f <_Z8CheckOptP15tageDaemonParam+0x81>
  40570c:	ba b5 f6 42 00       	mov    $0x42f6b5,%edx
  405711:	be d2 f9 42 00       	mov    $0x42f9d2,%esi
  405716:	bf 12 01 43 00       	mov    $0x430112,%edi
  40571b:	b8 00 00 00 00       	mov    $0x0,%eax
  405720:	e8 7b cf ff ff       	call   4026a0 <printf@plt>
  405725:	bf 00 00 00 00       	mov    $0x0,%edi
  40572a:	e8 81 d3 ff ff       	call   402ab0 <exit@plt>
  40572f:	48 8b 45 f8          	mov    -0x8(%rbp),%rax
  405733:	0f b6 40 02          	movzbl 0x2(%rax),%eax
  405737:	84 c0                	test   %al,%al
  405739:	74 28                	je     405763 <_Z8CheckOptP15tageDaemonParam+0xb5>
  40573b:	b9 28 01 43 00       	mov    $0x430128,%ecx
  405740:	ba b5 f6 42 00       	mov    $0x42f6b5,%edx
  405745:	be d2 f9 42 00       	mov    $0x42f9d2,%esi
  40574a:	bf 29 01 43 00       	mov    $0x430129,%edi
  40574f:	b8 00 00 00 00       	mov    $0x0,%eax
  405754:	e8 47 cf ff ff       	call   4026a0 <printf@plt>
  405759:	bf 00 00 00 00       	mov    $0x0,%edi
  40575e:	e8 4d d3 ff ff       	call   402ab0 <exit@plt>
  405763:	c9                   	leave  
  405764:	c3                   	ret    

0000000000405765 <main>:
  405765:	55                   	push   %rbp
  405766:	48 89 e5             	mov    %rsp,%rbp
  405769:	41 54                	push   %r12
  40576b:	53                   	push   %rbx
  40576c:	48 81 ec 00 02 00 00 	sub    $0x200,%rsp
  405773:	89 bd fc fd ff ff    	mov    %edi,-0x204(%rbp)
  405779:	48 89 b5 f0 fd ff ff 	mov    %rsi,-0x210(%rbp)
  405780:	64 48 8b 04 25 28 00 	mov    %fs:0x28,%rax
  405787:	00 00 
  405789:	48 89 45 e8          	mov    %rax,-0x18(%rbp)
  40578d:	31 c0                	xor    %eax,%eax
  40578f:	48 8d 85 00 fe ff ff 	lea    -0x200(%rbp),%rax
  405796:	48 89 c7             	mov    %rax,%rdi
  405799:	e8 bf e9 ff ff       	call   40415d <_Z13InitVarieblesP15tageDaemonParam>
  40579e:	48 8d 85 00 fe ff ff 	lea    -0x200(%rbp),%rax
  4057a5:	48 89 c7             	mov    %rax,%rdi
  4057a8:	e8 cf e2 ff ff       	call   403a7c <_Z11ReadMainIniP15tageDaemonParam>
  4057ad:	48 8d 95 00 fe ff ff 	lea    -0x200(%rbp),%rdx
  4057b4:	48 8b 8d f0 fd ff ff 	mov    -0x210(%rbp),%rcx
  4057bb:	8b 85 fc fd ff ff    	mov    -0x204(%rbp),%eax
  4057c1:	48 89 ce             	mov    %rcx,%rsi
  4057c4:	89 c7                	mov    %eax,%edi
  4057c6:	e8 66 f1 ff ff       	call   404931 <_Z6GetOptiPPcP15tageDaemonParam>
  4057cb:	48 8d 85 00 fe ff ff 	lea    -0x200(%rbp),%rax
  4057d2:	48 89 c7             	mov    %rax,%rdi
  4057d5:	e8 d4 fe ff ff       	call   4056ae <_Z8CheckOptP15tageDaemonParam>
  4057da:	48 8d 85 00 fe ff ff 	lea    -0x200(%rbp),%rax
  4057e1:	48 89 c7             	mov    %rax,%rdi
  4057e4:	e8 40 e0 ff ff       	call   403829 <_Z15PrintParamToLogP15tageDaemonParam>
  4057e9:	0f b6 05 04 5e 23 00 	movzbl 0x235e04(%rip),%eax        # 63b5f4 <ShowDebugPosition>
  4057f0:	84 c0                	test   %al,%al
  4057f2:	75 30                	jne    405824 <main+0xbf>
  4057f4:	8b 05 f6 5d 23 00    	mov    0x235df6(%rip),%eax        # 63b5f0 <DebugLevel>
  4057fa:	83 e0 01             	and    $0x1,%eax
  4057fd:	85 c0                	test   %eax,%eax
  4057ff:	74 14                	je     405815 <main+0xb0>
  405801:	be 48 01 43 00       	mov    $0x430148,%esi
  405806:	bf 01 00 00 00       	mov    $0x1,%edi
  40580b:	b8 00 00 00 00       	mov    $0x0,%eax
  405810:	e8 a7 94 02 00       	call   42ecbc <_Z10DebugPrintiPKcz>
  405815:	be 00 00 00 00       	mov    $0x0,%esi
  40581a:	bf 00 00 00 00       	mov    $0x0,%edi
  40581f:	e8 5c d2 ff ff       	call   402a80 <daemon@plt>
  405824:	e8 89 f0 ff ff       	call   4048b2 <_Z14GetEnvironmentv>
  405829:	48 8d 85 00 fe ff ff 	lea    -0x200(%rbp),%rax
  405830:	48 89 c7             	mov    %rax,%rdi
  405833:	e8 c2 f8 ff ff       	call   4050fa <_Z15IsDriverRunningP15tageDaemonParam>
  405838:	e8 ae fa ff ff       	call   4052eb <_Z20WriteProcessIDtoFilev>
  40583d:	bf 50 00 00 00       	mov    $0x50,%edi
  405842:	e8 a9 d1 ff ff       	call   4029f0 <_Znwm@plt>
  405847:	48 89 c3             	mov    %rax,%rbx
  40584a:	48 8d 85 00 fe ff ff 	lea    -0x200(%rbp),%rax
  405851:	48 89 c6             	mov    %rax,%rsi
  405854:	48 89 df             	mov    %rbx,%rdi
  405857:	e8 f2 26 00 00       	call   407f4e <_ZN8CManagerC1EP15tageDaemonParam>
  40585c:	48 89 1d a5 5e 23 00 	mov    %rbx,0x235ea5(%rip)        # 63b708 <g_pCManager>
  405863:	48 8b 05 9e 5e 23 00 	mov    0x235e9e(%rip),%rax        # 63b708 <g_pCManager>
  40586a:	48 85 c0             	test   %rax,%rax
  40586d:	75 2b                	jne    40589a <main+0x135>
  40586f:	8b 05 7b 5d 23 00    	mov    0x235d7b(%rip),%eax        # 63b5f0 <DebugLevel>
  405875:	83 e0 01             	and    $0x1,%eax
  405878:	85 c0                	test   %eax,%eax
  40587a:	74 14                	je     405890 <main+0x12b>
  40587c:	be 70 01 43 00       	mov    $0x430170,%esi
  405881:	bf 01 00 00 00       	mov    $0x1,%edi
  405886:	b8 00 00 00 00       	mov    $0x0,%eax
  40588b:	e8 ec 8e 02 00       	call   42e77c <_Z10ErrorPrintiPKcz>
  405890:	bf 01 00 00 00       	mov    $0x1,%edi
  405895:	e8 16 d2 ff ff       	call   402ab0 <exit@plt>
  40589a:	48 8b 05 67 5e 23 00 	mov    0x235e67(%rip),%rax        # 63b708 <g_pCManager>
  4058a1:	48 89 c7             	mov    %rax,%rdi
  4058a4:	e8 7d 1e 00 00       	call   407726 <_ZN8CManager21CreateManagerShareMemEv>
  4058a9:	85 c0                	test   %eax,%eax
  4058ab:	0f 95 c0             	setne  %al
  4058ae:	84 c0                	test   %al,%al
  4058b0:	74 26                	je     4058d8 <main+0x173>
  4058b2:	48 8b 1d 4f 5e 23 00 	mov    0x235e4f(%rip),%rbx        # 63b708 <g_pCManager>
  4058b9:	48 85 db             	test   %rbx,%rbx
  4058bc:	74 10                	je     4058ce <main+0x169>
  4058be:	48 89 df             	mov    %rbx,%rdi
  4058c1:	e8 1c 27 00 00       	call   407fe2 <_ZN8CManagerD1Ev>
  4058c6:	48 89 df             	mov    %rbx,%rdi
  4058c9:	e8 d2 d0 ff ff       	call   4029a0 <_ZdlPv@plt>
  4058ce:	bf 01 00 00 00       	mov    $0x1,%edi
  4058d3:	e8 d8 d1 ff ff       	call   402ab0 <exit@plt>
  4058d8:	8b 05 12 5d 23 00    	mov    0x235d12(%rip),%eax        # 63b5f0 <DebugLevel>
  4058de:	83 e0 01             	and    $0x1,%eax
  4058e1:	85 c0                	test   %eax,%eax
  4058e3:	74 14                	je     4058f9 <main+0x194>
  4058e5:	be 8f 01 43 00       	mov    $0x43018f,%esi
  4058ea:	bf 01 00 00 00       	mov    $0x1,%edi
  4058ef:	b8 00 00 00 00       	mov    $0x0,%eax
  4058f4:	e8 c3 93 02 00       	call   42ecbc <_Z10DebugPrintiPKcz>
  4058f9:	48 8b 05 08 5e 23 00 	mov    0x235e08(%rip),%rax        # 63b708 <g_pCManager>
  405900:	48 89 c7             	mov    %rax,%rdi
  405903:	e8 15 f5 ff ff       	call   404e1d <_Z15EndlessScanLoopP8CManager>
  405908:	48 8b 05 f9 5d 23 00 	mov    0x235df9(%rip),%rax        # 63b708 <g_pCManager>
  40590f:	48 89 c7             	mov    %rax,%rdi
  405912:	e8 71 f6 ff ff       	call   404f88 <_Z13DestroyObjectP8CManager>
  405917:	b8 00 00 00 00       	mov    $0x0,%eax
  40591c:	48 8b 4d e8          	mov    -0x18(%rbp),%rcx
  405920:	64 48 33 0c 25 28 00 	xor    %fs:0x28,%rcx
  405927:	00 00 
  405929:	74 1d                	je     405948 <main+0x1e3>
  40592b:	eb 16                	jmp    405943 <main+0x1de>
  40592d:	49 89 c4             	mov    %rax,%r12
  405930:	48 89 df             	mov    %rbx,%rdi
  405933:	e8 68 d0 ff ff       	call   4029a0 <_ZdlPv@plt>
  405938:	4c 89 e0             	mov    %r12,%rax
  40593b:	48 89 c7             	mov    %rax,%rdi
  40593e:	e8 5d d4 ff ff       	call   402da0 <_Unwind_Resume@plt>
  405943:	e8 d8 d0 ff ff       	call   402a20 <__stack_chk_fail@plt>
  405948:	48 81 c4 00 02 00 00 	add    $0x200,%rsp
  40594f:	5b                   	pop    %rbx
  405950:	41 5c                	pop    %r12
  405952:	5d                   	pop    %rbp
  405953:	c3                   	ret    

0000000000405954 <_ZN8CManager16AddandInitDeviceEPcPP13CDeviceObject>:
  405954:	55                   	push   %rbp
  405955:	48 89 e5             	mov    %rsp,%rbp
  405958:	41 54                	push   %r12
  40595a:	53                   	push   %rbx
  40595b:	48 83 ec 30          	sub    $0x30,%rsp
  40595f:	48 89 7d d8          	mov    %rdi,-0x28(%rbp)
  405963:	48 89 75 d0          	mov    %rsi,-0x30(%rbp)
  405967:	48 89 55 c8          	mov    %rdx,-0x38(%rbp)
  40596b:	8b 05 7f 5c 23 00    	mov    0x235c7f(%rip),%eax        # 63b5f0 <DebugLevel>
  405971:	83 e0 01             	and    $0x1,%eax
  405974:	85 c0                	test   %eax,%eax
  405976:	74 19                	je     405991 <_ZN8CManager16AddandInitDeviceEPcPP13CDeviceObject+0x3d>
  405978:	ba e0 09 43 00       	mov    $0x4309e0,%edx
  40597d:	be 70 02 43 00       	mov    $0x430270,%esi
  405982:	bf 01 00 00 00       	mov    $0x1,%edi
  405987:	b8 00 00 00 00       	mov    $0x0,%eax
  40598c:	e8 2b 93 02 00       	call   42ecbc <_Z10DebugPrintiPKcz>
  405991:	48 8b 45 c8          	mov    -0x38(%rbp),%rax
  405995:	48 8b 00             	mov    (%rax),%rax
  405998:	48 85 c0             	test   %rax,%rax
  40599b:	75 75                	jne    405a12 <_ZN8CManager16AddandInitDeviceEPcPP13CDeviceObject+0xbe>
  40599d:	48 8b 45 d8          	mov    -0x28(%rbp),%rax
  4059a1:	0f b7 40 10          	movzwl 0x10(%rax),%eax
  4059a5:	8d 50 01             	lea    0x1(%rax),%edx
  4059a8:	48 8b 45 d8          	mov    -0x28(%rbp),%rax
  4059ac:	66 89 50 10          	mov    %dx,0x10(%rax)
  4059b0:	8b 05 3a 5c 23 00    	mov    0x235c3a(%rip),%eax        # 63b5f0 <DebugLevel>
  4059b6:	83 e0 02             	and    $0x2,%eax
  4059b9:	85 c0                	test   %eax,%eax
  4059bb:	74 28                	je     4059e5 <_ZN8CManager16AddandInitDeviceEPcPP13CDeviceObject+0x91>
  4059bd:	48 8b 45 d8          	mov    -0x28(%rbp),%rax
  4059c1:	0f b7 40 10          	movzwl 0x10(%rax),%eax
  4059c5:	0f bf d0             	movswl %ax,%edx
  4059c8:	48 8b 45 d0          	mov    -0x30(%rbp),%rax
  4059cc:	89 d1                	mov    %edx,%ecx
  4059ce:	48 89 c2             	mov    %rax,%rdx
  4059d1:	be 80 02 43 00       	mov    $0x430280,%esi
  4059d6:	bf 02 00 00 00       	mov    $0x2,%edi
  4059db:	b8 00 00 00 00       	mov    $0x0,%eax
  4059e0:	e8 d7 92 02 00       	call   42ecbc <_Z10DebugPrintiPKcz>
  4059e5:	bf 28 33 00 00       	mov    $0x3328,%edi
  4059ea:	e8 01 d0 ff ff       	call   4029f0 <_Znwm@plt>
  4059ef:	48 89 c3             	mov    %rax,%rbx
  4059f2:	48 8b 45 d8          	mov    -0x28(%rbp),%rax
  4059f6:	48 8b 50 08          	mov    0x8(%rax),%rdx
  4059fa:	48 8b 45 d0          	mov    -0x30(%rbp),%rax
  4059fe:	48 89 c6             	mov    %rax,%rsi
  405a01:	48 89 df             	mov    %rbx,%rdi
  405a04:	e8 63 5c 00 00       	call   40b66c <_ZN13CDeviceObjectC1EPcP15tageDaemonParam>
  405a09:	48 8b 45 c8          	mov    -0x38(%rbp),%rax
  405a0d:	48 89 18             	mov    %rbx,(%rax)
  405a10:	eb 49                	jmp    405a5b <_ZN8CManager16AddandInitDeviceEPcPP13CDeviceObject+0x107>
  405a12:	48 c7 45 e8 00 00 00 	movq   $0x0,-0x18(%rbp)
  405a19:	00 
  405a1a:	48 8b 45 c8          	mov    -0x38(%rbp),%rax
  405a1e:	48 8b 00             	mov    (%rax),%rax
  405a21:	48 89 45 e8          	mov    %rax,-0x18(%rbp)
  405a25:	48 8b 45 e8          	mov    -0x18(%rbp),%rax
  405a29:	48 8d 90 28 1d 00 00 	lea    0x1d28(%rax),%rdx
  405a30:	48 8b 4d d0          	mov    -0x30(%rbp),%rcx
  405a34:	48 8b 45 d8          	mov    -0x28(%rbp),%rax
  405a38:	48 89 ce             	mov    %rcx,%rsi
  405a3b:	48 89 c7             	mov    %rax,%rdi
  405a3e:	e8 11 ff ff ff       	call   405954 <_ZN8CManager16AddandInitDeviceEPcPP13CDeviceObject>
  405a43:	eb 16                	jmp    405a5b <_ZN8CManager16AddandInitDeviceEPcPP13CDeviceObject+0x107>
  405a45:	49 89 c4             	mov    %rax,%r12
  405a48:	48 89 df             	mov    %rbx,%rdi
  405a4b:	e8 50 cf ff ff       	call   4029a0 <_ZdlPv@plt>
  405a50:	4c 89 e0             	mov    %r12,%rax
  405a53:	48 89 c7             	mov    %rax,%rdi
  405a56:	e8 45 d3 ff ff       	call   402da0 <_Unwind_Resume@plt>
  405a5b:	48 83 c4 30          	add    $0x30,%rsp
  405a5f:	5b                   	pop    %rbx
  405a60:	41 5c                	pop    %r12
  405a62:	5d                   	pop    %rbp
  405a63:	c3                   	ret    

0000000000405a64 <_ZN8CManager12RemoveDeviceEPP13CDeviceObject>:
  405a64:	55                   	push   %rbp
  405a65:	48 89 e5             	mov    %rsp,%rbp
  405a68:	53                   	push   %rbx
  405a69:	48 83 ec 78          	sub    $0x78,%rsp
  405a6d:	48 89 7d 88          	mov    %rdi,-0x78(%rbp)
  405a71:	48 89 75 80          	mov    %rsi,-0x80(%rbp)
  405a75:	64 48 8b 04 25 28 00 	mov    %fs:0x28,%rax
  405a7c:	00 00 
  405a7e:	48 89 45 e8          	mov    %rax,-0x18(%rbp)
  405a82:	31 c0                	xor    %eax,%eax
  405a84:	48 c7 45 90 00 00 00 	movq   $0x0,-0x70(%rbp)
  405a8b:	00 
  405a8c:	48 8b 45 80          	mov    -0x80(%rbp),%rax
  405a90:	48 8b 00             	mov    (%rax),%rax
  405a93:	48 89 45 98          	mov    %rax,-0x68(%rbp)
  405a97:	48 8d 75 a0          	lea    -0x60(%rbp),%rsi
  405a9b:	b8 00 00 00 00       	mov    $0x0,%eax
  405aa0:	ba 08 00 00 00       	mov    $0x8,%edx
  405aa5:	48 89 f7             	mov    %rsi,%rdi
  405aa8:	48 89 d1             	mov    %rdx,%rcx
  405aab:	f3 48 ab             	rep stos %rax,%es:(%rdi)
  405aae:	48 8b 45 98          	mov    -0x68(%rbp),%rax
  405ab2:	48 8d 90 88 02 00 00 	lea    0x288(%rax),%rdx
  405ab9:	48 8d 45 a0          	lea    -0x60(%rbp),%rax
  405abd:	48 89 d6             	mov    %rdx,%rsi
  405ac0:	48 89 c7             	mov    %rax,%rdi
  405ac3:	e8 c8 ce ff ff       	call   402990 <strcpy@plt>
  405ac8:	48 8b 45 98          	mov    -0x68(%rbp),%rax
  405acc:	48 8b 80 28 1d 00 00 	mov    0x1d28(%rax),%rax
  405ad3:	48 85 c0             	test   %rax,%rax
  405ad6:	74 0f                	je     405ae7 <_ZN8CManager12RemoveDeviceEPP13CDeviceObject+0x83>
  405ad8:	48 8b 45 98          	mov    -0x68(%rbp),%rax
  405adc:	48 8b 80 28 1d 00 00 	mov    0x1d28(%rax),%rax
  405ae3:	48 89 45 90          	mov    %rax,-0x70(%rbp)
  405ae7:	48 8b 45 80          	mov    -0x80(%rbp),%rax
  405aeb:	48 8b 10             	mov    (%rax),%rdx
  405aee:	48 8b 45 88          	mov    -0x78(%rbp),%rax
  405af2:	48 89 d6             	mov    %rdx,%rsi
  405af5:	48 89 c7             	mov    %rax,%rdi
  405af8:	e8 2d 21 00 00       	call   407c2a <_ZN8CManager23RemoveDeviceInfoFromShmEP13CDeviceObject>
  405afd:	48 8b 45 80          	mov    -0x80(%rbp),%rax
  405b01:	48 8b 18             	mov    (%rax),%rbx
  405b04:	48 85 db             	test   %rbx,%rbx
  405b07:	74 10                	je     405b19 <_ZN8CManager12RemoveDeviceEPP13CDeviceObject+0xb5>
  405b09:	48 89 df             	mov    %rbx,%rdi
  405b0c:	e8 7d 5c 00 00       	call   40b78e <_ZN13CDeviceObjectD1Ev>
  405b11:	48 89 df             	mov    %rbx,%rdi
  405b14:	e8 87 ce ff ff       	call   4029a0 <_ZdlPv@plt>
  405b19:	48 8b 45 80          	mov    -0x80(%rbp),%rax
  405b1d:	48 8b 55 90          	mov    -0x70(%rbp),%rdx
  405b21:	48 89 10             	mov    %rdx,(%rax)
  405b24:	48 8b 45 88          	mov    -0x78(%rbp),%rax
  405b28:	0f b7 40 10          	movzwl 0x10(%rax),%eax
  405b2c:	8d 50 ff             	lea    -0x1(%rax),%edx
  405b2f:	48 8b 45 88          	mov    -0x78(%rbp),%rax
  405b33:	66 89 50 10          	mov    %dx,0x10(%rax)
  405b37:	8b 05 b3 5a 23 00    	mov    0x235ab3(%rip),%eax        # 63b5f0 <DebugLevel>
  405b3d:	83 e0 02             	and    $0x2,%eax
  405b40:	85 c0                	test   %eax,%eax
  405b42:	74 28                	je     405b6c <_ZN8CManager12RemoveDeviceEPP13CDeviceObject+0x108>
  405b44:	48 8b 45 88          	mov    -0x78(%rbp),%rax
  405b48:	0f b7 40 10          	movzwl 0x10(%rax),%eax
  405b4c:	0f bf d0             	movswl %ax,%edx
  405b4f:	48 8d 45 a0          	lea    -0x60(%rbp),%rax
  405b53:	89 d1                	mov    %edx,%ecx
  405b55:	48 89 c2             	mov    %rax,%rdx
  405b58:	be b0 02 43 00       	mov    $0x4302b0,%esi
  405b5d:	bf 02 00 00 00       	mov    $0x2,%edi
  405b62:	b8 00 00 00 00       	mov    $0x0,%eax
  405b67:	e8 50 91 02 00       	call   42ecbc <_Z10DebugPrintiPKcz>
  405b6c:	48 8b 45 e8          	mov    -0x18(%rbp),%rax
  405b70:	64 48 33 04 25 28 00 	xor    %fs:0x28,%rax
  405b77:	00 00 
  405b79:	74 05                	je     405b80 <_ZN8CManager12RemoveDeviceEPP13CDeviceObject+0x11c>
  405b7b:	e8 a0 ce ff ff       	call   402a20 <__stack_chk_fail@plt>
  405b80:	48 83 c4 78          	add    $0x78,%rsp
  405b84:	5b                   	pop    %rbx
  405b85:	5d                   	pop    %rbp
  405b86:	c3                   	ret    
  405b87:	90                   	nop

0000000000405b88 <_ZN8CManager14CheckUSBDeviceEPc>:
  405b88:	55                   	push   %rbp
  405b89:	48 89 e5             	mov    %rsp,%rbp
  405b8c:	53                   	push   %rbx
  405b8d:	48 81 ec 98 00 00 00 	sub    $0x98,%rsp
  405b94:	48 89 bd 68 ff ff ff 	mov    %rdi,-0x98(%rbp)
  405b9b:	48 89 b5 60 ff ff ff 	mov    %rsi,-0xa0(%rbp)
  405ba2:	64 48 8b 04 25 28 00 	mov    %fs:0x28,%rax
  405ba9:	00 00 
  405bab:	48 89 45 e8          	mov    %rax,-0x18(%rbp)
  405baf:	31 c0                	xor    %eax,%eax
  405bb1:	8b 05 39 5a 23 00    	mov    0x235a39(%rip),%eax        # 63b5f0 <DebugLevel>
  405bb7:	25 00 00 01 00       	and    $0x10000,%eax
  405bbc:	85 c0                	test   %eax,%eax
  405bbe:	74 19                	je     405bd9 <_ZN8CManager14CheckUSBDeviceEPc+0x51>
  405bc0:	ba f1 09 43 00       	mov    $0x4309f1,%edx
  405bc5:	be e4 02 43 00       	mov    $0x4302e4,%esi
  405bca:	bf 00 00 01 00       	mov    $0x10000,%edi
  405bcf:	b8 00 00 00 00       	mov    $0x0,%eax
  405bd4:	e8 e3 90 02 00       	call   42ecbc <_Z10DebugPrintiPKcz>
  405bd9:	48 8d 75 a0          	lea    -0x60(%rbp),%rsi
  405bdd:	b8 00 00 00 00       	mov    $0x0,%eax
  405be2:	ba 08 00 00 00       	mov    $0x8,%edx
  405be7:	48 89 f7             	mov    %rsi,%rdi
  405bea:	48 89 d1             	mov    %rdx,%rcx
  405bed:	f3 48 ab             	rep stos %rax,%es:(%rdi)
  405bf0:	c7 45 88 ff ff ff ff 	movl   $0xffffffff,-0x78(%rbp)
  405bf7:	48 8b 85 60 ff ff ff 	mov    -0xa0(%rbp),%rax
  405bfe:	be 02 00 00 00       	mov    $0x2,%esi
  405c03:	48 89 c7             	mov    %rax,%rdi
  405c06:	b8 00 00 00 00       	mov    $0x0,%eax
  405c0b:	e8 60 cc ff ff       	call   402870 <open@plt>
  405c10:	89 45 88             	mov    %eax,-0x78(%rbp)
  405c13:	83 7d 88 00          	cmpl   $0x0,-0x78(%rbp)
  405c17:	79 46                	jns    405c5f <_ZN8CManager14CheckUSBDeviceEPc+0xd7>
  405c19:	8b 05 d1 59 23 00    	mov    0x2359d1(%rip),%eax        # 63b5f0 <DebugLevel>
  405c1f:	25 00 00 01 00       	and    $0x10000,%eax
  405c24:	85 c0                	test   %eax,%eax
  405c26:	74 23                	je     405c4b <_ZN8CManager14CheckUSBDeviceEPc+0xc3>
  405c28:	8b 55 88             	mov    -0x78(%rbp),%edx
  405c2b:	48 8b 85 60 ff ff ff 	mov    -0xa0(%rbp),%rax
  405c32:	89 d1                	mov    %edx,%ecx
  405c34:	48 89 c2             	mov    %rax,%rdx
  405c37:	be f8 02 43 00       	mov    $0x4302f8,%esi
  405c3c:	bf 00 00 01 00       	mov    $0x10000,%edi
  405c41:	b8 00 00 00 00       	mov    $0x0,%eax
  405c46:	e8 31 8b 02 00       	call   42e77c <_Z10ErrorPrintiPKcz>
  405c4b:	8b 45 88             	mov    -0x78(%rbp),%eax
  405c4e:	89 c7                	mov    %eax,%edi
  405c50:	e8 2b d2 ff ff       	call   402e80 <close@plt>
  405c55:	b8 ff ff ff ff       	mov    $0xffffffff,%eax
  405c5a:	e9 00 04 00 00       	jmp    40605f <_ZN8CManager14CheckUSBDeviceEPc+0x4d7>
  405c5f:	ba 00 00 08 00       	mov    $0x80000,%edx
  405c64:	b8 03 48 00 80       	mov    $0x80004803,%eax
  405c69:	48 89 d1             	mov    %rdx,%rcx
  405c6c:	48 09 c1             	or     %rax,%rcx
  405c6f:	48 8d 55 90          	lea    -0x70(%rbp),%rdx
  405c73:	8b 45 88             	mov    -0x78(%rbp),%eax
  405c76:	48 89 ce             	mov    %rcx,%rsi
  405c79:	89 c7                	mov    %eax,%edi
  405c7b:	b8 00 00 00 00       	mov    $0x0,%eax
  405c80:	e8 0b cf ff ff       	call   402b90 <ioctl@plt>
  405c85:	89 45 8c             	mov    %eax,-0x74(%rbp)
  405c88:	83 7d 8c 00          	cmpl   $0x0,-0x74(%rbp)
  405c8c:	0f 88 69 03 00 00    	js     405ffb <_ZN8CManager14CheckUSBDeviceEPc+0x473>
  405c92:	0f b7 45 94          	movzwl -0x6c(%rbp),%eax
  405c96:	66 3d e7 04          	cmp    $0x4e7,%ax
  405c9a:	74 48                	je     405ce4 <_ZN8CManager14CheckUSBDeviceEPc+0x15c>
  405c9c:	0f b7 45 94          	movzwl -0x6c(%rbp),%eax
  405ca0:	66 3d ef 0e          	cmp    $0xeef,%ax
  405ca4:	74 3e                	je     405ce4 <_ZN8CManager14CheckUSBDeviceEPc+0x15c>
  405ca6:	8b 05 44 59 23 00    	mov    0x235944(%rip),%eax        # 63b5f0 <DebugLevel>
  405cac:	25 00 00 01 00       	and    $0x10000,%eax
  405cb1:	85 c0                	test   %eax,%eax
  405cb3:	74 1b                	je     405cd0 <_ZN8CManager14CheckUSBDeviceEPc+0x148>
  405cb5:	0f b7 45 94          	movzwl -0x6c(%rbp),%eax
  405cb9:	98                   	cwtl   
  405cba:	89 c2                	mov    %eax,%edx
  405cbc:	be 58 03 43 00       	mov    $0x430358,%esi
  405cc1:	bf 00 00 01 00       	mov    $0x10000,%edi
  405cc6:	b8 00 00 00 00       	mov    $0x0,%eax
  405ccb:	e8 ec 8f 02 00       	call   42ecbc <_Z10DebugPrintiPKcz>
  405cd0:	8b 45 88             	mov    -0x78(%rbp),%eax
  405cd3:	89 c7                	mov    %eax,%edi
  405cd5:	e8 a6 d1 ff ff       	call   402e80 <close@plt>
  405cda:	b8 ff ff ff ff       	mov    $0xffffffff,%eax
  405cdf:	e9 7b 03 00 00       	jmp    40605f <_ZN8CManager14CheckUSBDeviceEPc+0x4d7>
  405ce4:	8b 05 06 59 23 00    	mov    0x235906(%rip),%eax        # 63b5f0 <DebugLevel>
  405cea:	25 00 00 01 00       	and    $0x10000,%eax
  405cef:	85 c0                	test   %eax,%eax
  405cf1:	74 1b                	je     405d0e <_ZN8CManager14CheckUSBDeviceEPc+0x186>
  405cf3:	0f b7 45 94          	movzwl -0x6c(%rbp),%eax
  405cf7:	98                   	cwtl   
  405cf8:	89 c2                	mov    %eax,%edx
  405cfa:	be 79 03 43 00       	mov    $0x430379,%esi
  405cff:	bf 00 00 01 00       	mov    $0x10000,%edi
  405d04:	b8 00 00 00 00       	mov    $0x0,%eax
  405d09:	e8 ae 8f 02 00       	call   42ecbc <_Z10DebugPrintiPKcz>
  405d0e:	48 8b 85 68 ff ff ff 	mov    -0x98(%rbp),%rax
  405d15:	48 8b 40 08          	mov    0x8(%rax),%rax
  405d19:	c6 80 c8 01 00 00 00 	movb   $0x0,0x1c8(%rax)
  405d20:	8b 05 5a 59 23 00    	mov    0x23595a(%rip),%eax        # 63b680 <Kernel_Major>
  405d26:	83 f8 02             	cmp    $0x2,%eax
  405d29:	75 4b                	jne    405d76 <_ZN8CManager14CheckUSBDeviceEPc+0x1ee>
  405d2b:	8b 05 53 59 23 00    	mov    0x235953(%rip),%eax        # 63b684 <Kernel_Minor>
  405d31:	83 f8 06             	cmp    $0x6,%eax
  405d34:	75 40                	jne    405d76 <_ZN8CManager14CheckUSBDeviceEPc+0x1ee>
  405d36:	8b 05 4c 59 23 00    	mov    0x23594c(%rip),%eax        # 63b688 <Kernel_Release>
  405d3c:	83 f8 1c             	cmp    $0x1c,%eax
  405d3f:	7f 35                	jg     405d76 <_ZN8CManager14CheckUSBDeviceEPc+0x1ee>
  405d41:	8b 05 a9 58 23 00    	mov    0x2358a9(%rip),%eax        # 63b5f0 <DebugLevel>
  405d47:	83 e0 02             	and    $0x2,%eax
  405d4a:	85 c0                	test   %eax,%eax
  405d4c:	74 14                	je     405d62 <_ZN8CManager14CheckUSBDeviceEPc+0x1da>
  405d4e:	be 98 03 43 00       	mov    $0x430398,%esi
  405d53:	bf 02 00 00 00       	mov    $0x2,%edi
  405d58:	b8 00 00 00 00       	mov    $0x0,%eax
  405d5d:	e8 5a 8f 02 00       	call   42ecbc <_Z10DebugPrintiPKcz>
  405d62:	8b 45 88             	mov    -0x78(%rbp),%eax
  405d65:	89 c7                	mov    %eax,%edi
  405d67:	e8 14 d1 ff ff       	call   402e80 <close@plt>
  405d6c:	b8 00 00 00 00       	mov    $0x0,%eax
  405d71:	e9 e9 02 00 00       	jmp    40605f <_ZN8CManager14CheckUSBDeviceEPc+0x4d7>
  405d76:	48 8d 55 a0          	lea    -0x60(%rbp),%rdx
  405d7a:	8b 45 88             	mov    -0x78(%rbp),%eax
  405d7d:	be 04 48 40 80       	mov    $0x80404804,%esi
  405d82:	89 c7                	mov    %eax,%edi
  405d84:	b8 00 00 00 00       	mov    $0x0,%eax
  405d89:	e8 02 ce ff ff       	call   402b90 <ioctl@plt>
  405d8e:	89 45 8c             	mov    %eax,-0x74(%rbp)
  405d91:	83 7d 8c 00          	cmpl   $0x0,-0x74(%rbp)
  405d95:	79 35                	jns    405dcc <_ZN8CManager14CheckUSBDeviceEPc+0x244>
  405d97:	8b 05 53 58 23 00    	mov    0x235853(%rip),%eax        # 63b5f0 <DebugLevel>
  405d9d:	83 e0 02             	and    $0x2,%eax
  405da0:	85 c0                	test   %eax,%eax
  405da2:	74 14                	je     405db8 <_ZN8CManager14CheckUSBDeviceEPc+0x230>
  405da4:	be d8 03 43 00       	mov    $0x4303d8,%esi
  405da9:	bf 02 00 00 00       	mov    $0x2,%edi
  405dae:	b8 00 00 00 00       	mov    $0x0,%eax
  405db3:	e8 c4 89 02 00       	call   42e77c <_Z10ErrorPrintiPKcz>
  405db8:	8b 45 88             	mov    -0x78(%rbp),%eax
  405dbb:	89 c7                	mov    %eax,%edi
  405dbd:	e8 be d0 ff ff       	call   402e80 <close@plt>
  405dc2:	b8 ff ff ff ff       	mov    $0xffffffff,%eax
  405dc7:	e9 93 02 00 00       	jmp    40605f <_ZN8CManager14CheckUSBDeviceEPc+0x4d7>
  405dcc:	0f b7 45 94          	movzwl -0x6c(%rbp),%eax
  405dd0:	66 3d e7 04          	cmp    $0x4e7,%ax
  405dd4:	75 3a                	jne    405e10 <_ZN8CManager14CheckUSBDeviceEPc+0x288>
  405dd6:	0f b7 45 96          	movzwl -0x6a(%rbp),%eax
  405dda:	66 83 f8 5f          	cmp    $0x5f,%ax
  405dde:	7e 0a                	jle    405dea <_ZN8CManager14CheckUSBDeviceEPc+0x262>
  405de0:	0f b7 45 96          	movzwl -0x6a(%rbp),%eax
  405de4:	66 83 f8 6f          	cmp    $0x6f,%ax
  405de8:	7e 26                	jle    405e10 <_ZN8CManager14CheckUSBDeviceEPc+0x288>
  405dea:	0f b7 45 96          	movzwl -0x6a(%rbp),%eax
  405dee:	66 3d ff 07          	cmp    $0x7ff,%ax
  405df2:	7e 0a                	jle    405dfe <_ZN8CManager14CheckUSBDeviceEPc+0x276>
  405df4:	0f b7 45 96          	movzwl -0x6a(%rbp),%eax
  405df8:	66 3d ff 08          	cmp    $0x8ff,%ax
  405dfc:	7e 12                	jle    405e10 <_ZN8CManager14CheckUSBDeviceEPc+0x288>
  405dfe:	48 8b 85 68 ff ff ff 	mov    -0x98(%rbp),%rax
  405e05:	48 8b 40 08          	mov    0x8(%rax),%rax
  405e09:	c6 80 c8 01 00 00 01 	movb   $0x1,0x1c8(%rax)
  405e10:	c6 85 7e ff ff ff 00 	movb   $0x0,-0x82(%rbp)
  405e17:	c6 85 7f ff ff ff 00 	movb   $0x0,-0x81(%rbp)
  405e1e:	0f b7 45 96          	movzwl -0x6a(%rbp),%eax
  405e22:	66 89 45 80          	mov    %ax,-0x80(%rbp)
  405e26:	66 c7 45 82 00 00    	movw   $0x0,-0x7e(%rbp)
  405e2c:	8b 05 be 57 23 00    	mov    0x2357be(%rip),%eax        # 63b5f0 <DebugLevel>
  405e32:	83 e0 02             	and    $0x2,%eax
  405e35:	85 c0                	test   %eax,%eax
  405e37:	74 1a                	je     405e53 <_ZN8CManager14CheckUSBDeviceEPc+0x2cb>
  405e39:	0f b7 45 80          	movzwl -0x80(%rbp),%eax
  405e3d:	89 c2                	mov    %eax,%edx
  405e3f:	be f9 03 43 00       	mov    $0x4303f9,%esi
  405e44:	bf 02 00 00 00       	mov    $0x2,%edi
  405e49:	b8 00 00 00 00       	mov    $0x0,%eax
  405e4e:	e8 69 8e 02 00       	call   42ecbc <_Z10DebugPrintiPKcz>
  405e53:	c7 45 84 00 00 00 00 	movl   $0x0,-0x7c(%rbp)
  405e5a:	e9 2b 01 00 00       	jmp    405f8a <_ZN8CManager14CheckUSBDeviceEPc+0x402>
  405e5f:	48 8b 85 68 ff ff ff 	mov    -0x98(%rbp),%rax
  405e66:	48 8b 48 08          	mov    0x8(%rax),%rcx
  405e6a:	8b 45 84             	mov    -0x7c(%rbp),%eax
  405e6d:	48 63 d0             	movslq %eax,%rdx
  405e70:	48 89 d0             	mov    %rdx,%rax
  405e73:	48 c1 e0 02          	shl    $0x2,%rax
  405e77:	48 01 d0             	add    %rdx,%rax
  405e7a:	48 05 80 01 00 00    	add    $0x180,%rax
  405e80:	48 01 c8             	add    %rcx,%rax
  405e83:	48 83 c0 05          	add    $0x5,%rax
  405e87:	be 0a 04 43 00       	mov    $0x43040a,%esi
  405e8c:	48 89 c7             	mov    %rax,%rdi
  405e8f:	e8 6c c8 ff ff       	call   402700 <strstr@plt>
  405e94:	48 85 c0             	test   %rax,%rax
  405e97:	0f 85 e9 00 00 00    	jne    405f86 <_ZN8CManager14CheckUSBDeviceEPc+0x3fe>
  405e9d:	48 8b 85 68 ff ff ff 	mov    -0x98(%rbp),%rax
  405ea4:	48 8b 48 08          	mov    0x8(%rax),%rcx
  405ea8:	8b 45 84             	mov    -0x7c(%rbp),%eax
  405eab:	48 63 d0             	movslq %eax,%rdx
  405eae:	48 89 d0             	mov    %rdx,%rax
  405eb1:	48 c1 e0 02          	shl    $0x2,%rax
  405eb5:	48 01 d0             	add    %rdx,%rax
  405eb8:	48 05 80 01 00 00    	add    $0x180,%rax
  405ebe:	48 01 c8             	add    %rcx,%rax
  405ec1:	48 83 c0 05          	add    $0x5,%rax
  405ec5:	be 0f 04 43 00       	mov    $0x43040f,%esi
  405eca:	48 89 c7             	mov    %rax,%rdi
  405ecd:	e8 2e c8 ff ff       	call   402700 <strstr@plt>
  405ed2:	48 85 c0             	test   %rax,%rax
  405ed5:	0f 85 ab 00 00 00    	jne    405f86 <_ZN8CManager14CheckUSBDeviceEPc+0x3fe>
  405edb:	c6 85 7e ff ff ff 01 	movb   $0x1,-0x82(%rbp)
  405ee2:	48 8b 85 68 ff ff ff 	mov    -0x98(%rbp),%rax
  405ee9:	48 8b 48 08          	mov    0x8(%rax),%rcx
  405eed:	8b 45 84             	mov    -0x7c(%rbp),%eax
  405ef0:	48 63 d0             	movslq %eax,%rdx
  405ef3:	48 89 d0             	mov    %rdx,%rax
  405ef6:	48 c1 e0 02          	shl    $0x2,%rax
  405efa:	48 01 d0             	add    %rdx,%rax
  405efd:	48 05 80 01 00 00    	add    $0x180,%rax
  405f03:	48 01 c8             	add    %rcx,%rax
  405f06:	48 83 c0 05          	add    $0x5,%rax
  405f0a:	ba 10 00 00 00       	mov    $0x10,%edx
  405f0f:	be 00 00 00 00       	mov    $0x0,%esi
  405f14:	48 89 c7             	mov    %rax,%rdi
  405f17:	e8 64 cc ff ff       	call   402b80 <strtol@plt>
  405f1c:	66 89 45 82          	mov    %ax,-0x7e(%rbp)
  405f20:	8b 05 ca 56 23 00    	mov    0x2356ca(%rip),%eax        # 63b5f0 <DebugLevel>
  405f26:	83 e0 02             	and    $0x2,%eax
  405f29:	85 c0                	test   %eax,%eax
  405f2b:	74 1f                	je     405f4c <_ZN8CManager14CheckUSBDeviceEPc+0x3c4>
  405f2d:	0f b7 55 82          	movzwl -0x7e(%rbp),%edx
  405f31:	8b 45 84             	mov    -0x7c(%rbp),%eax
  405f34:	89 d1                	mov    %edx,%ecx
  405f36:	89 c2                	mov    %eax,%edx
  405f38:	be 18 04 43 00       	mov    $0x430418,%esi
  405f3d:	bf 02 00 00 00       	mov    $0x2,%edi
  405f42:	b8 00 00 00 00       	mov    $0x0,%eax
  405f47:	e8 70 8d 02 00       	call   42ecbc <_Z10DebugPrintiPKcz>
  405f4c:	0f b7 45 80          	movzwl -0x80(%rbp),%eax
  405f50:	66 3b 45 82          	cmp    -0x7e(%rbp),%ax
  405f54:	75 30                	jne    405f86 <_ZN8CManager14CheckUSBDeviceEPc+0x3fe>
  405f56:	8b 05 94 56 23 00    	mov    0x235694(%rip),%eax        # 63b5f0 <DebugLevel>
  405f5c:	83 e0 02             	and    $0x2,%eax
  405f5f:	85 c0                	test   %eax,%eax
  405f61:	74 1a                	je     405f7d <_ZN8CManager14CheckUSBDeviceEPc+0x3f5>
  405f63:	0f b7 45 80          	movzwl -0x80(%rbp),%eax
  405f67:	89 c2                	mov    %eax,%edx
  405f69:	be 39 04 43 00       	mov    $0x430439,%esi
  405f6e:	bf 02 00 00 00       	mov    $0x2,%edi
  405f73:	b8 00 00 00 00       	mov    $0x0,%eax
  405f78:	e8 3f 8d 02 00       	call   42ecbc <_Z10DebugPrintiPKcz>
  405f7d:	c6 85 7f ff ff ff 01 	movb   $0x1,-0x81(%rbp)
  405f84:	eb 0e                	jmp    405f94 <_ZN8CManager14CheckUSBDeviceEPc+0x40c>
  405f86:	83 45 84 01          	addl   $0x1,-0x7c(%rbp)
  405f8a:	83 7d 84 09          	cmpl   $0x9,-0x7c(%rbp)
  405f8e:	0f 8e cb fe ff ff    	jle    405e5f <_ZN8CManager14CheckUSBDeviceEPc+0x2d7>
  405f94:	80 bd 7e ff ff ff 00 	cmpb   $0x0,-0x82(%rbp)
  405f9b:	74 45                	je     405fe2 <_ZN8CManager14CheckUSBDeviceEPc+0x45a>
  405f9d:	0f b6 85 7f ff ff ff 	movzbl -0x81(%rbp),%eax
  405fa4:	83 f0 01             	xor    $0x1,%eax
  405fa7:	84 c0                	test   %al,%al
  405fa9:	74 37                	je     405fe2 <_ZN8CManager14CheckUSBDeviceEPc+0x45a>
  405fab:	8b 05 3f 56 23 00    	mov    0x23563f(%rip),%eax        # 63b5f0 <DebugLevel>
  405fb1:	83 e0 02             	and    $0x2,%eax
  405fb4:	85 c0                	test   %eax,%eax
  405fb6:	74 19                	je     405fd1 <_ZN8CManager14CheckUSBDeviceEPc+0x449>
  405fb8:	ba f1 09 43 00       	mov    $0x4309f1,%edx
  405fbd:	be 4a 04 43 00       	mov    $0x43044a,%esi
  405fc2:	bf 02 00 00 00       	mov    $0x2,%edi
  405fc7:	b8 00 00 00 00       	mov    $0x0,%eax
  405fcc:	e8 eb 8c 02 00       	call   42ecbc <_Z10DebugPrintiPKcz>
  405fd1:	8b 45 88             	mov    -0x78(%rbp),%eax
  405fd4:	89 c7                	mov    %eax,%edi
  405fd6:	e8 a5 ce ff ff       	call   402e80 <close@plt>
  405fdb:	b8 ff ff ff ff       	mov    $0xffffffff,%eax
  405fe0:	eb 7d                	jmp    40605f <_ZN8CManager14CheckUSBDeviceEPc+0x4d7>
  405fe2:	8b 45 88             	mov    -0x78(%rbp),%eax
  405fe5:	89 c7                	mov    %eax,%edi
  405fe7:	e8 94 ce ff ff       	call   402e80 <close@plt>
  405fec:	8b 05 fe 55 23 00    	mov    0x2355fe(%rip),%eax        # 63b5f0 <DebugLevel>
  405ff2:	83 e0 01             	and    $0x1,%eax
  405ff5:	85 c0                	test   %eax,%eax
  405ff7:	74 61                	je     40605a <_ZN8CManager14CheckUSBDeviceEPc+0x4d2>
  405ff9:	eb 3c                	jmp    406037 <_ZN8CManager14CheckUSBDeviceEPc+0x4af>
  405ffb:	8b 05 ef 55 23 00    	mov    0x2355ef(%rip),%eax        # 63b5f0 <DebugLevel>
  406001:	83 e0 02             	and    $0x2,%eax
  406004:	85 c0                	test   %eax,%eax
  406006:	74 1e                	je     406026 <_ZN8CManager14CheckUSBDeviceEPc+0x49e>
  406008:	48 8b 85 60 ff ff ff 	mov    -0xa0(%rbp),%rax
  40600f:	48 89 c2             	mov    %rax,%rdx
  406012:	be 68 04 43 00       	mov    $0x430468,%esi
  406017:	bf 02 00 00 00       	mov    $0x2,%edi
  40601c:	b8 00 00 00 00       	mov    $0x0,%eax
  406021:	e8 56 87 02 00       	call   42e77c <_Z10ErrorPrintiPKcz>
  406026:	8b 45 88             	mov    -0x78(%rbp),%eax
  406029:	89 c7                	mov    %eax,%edi
  40602b:	e8 50 ce ff ff       	call   402e80 <close@plt>
  406030:	b8 ff ff ff ff       	mov    $0xffffffff,%eax
  406035:	eb 28                	jmp    40605f <_ZN8CManager14CheckUSBDeviceEPc+0x4d7>
  406037:	48 8b 85 60 ff ff ff 	mov    -0xa0(%rbp),%rax
  40603e:	48 89 c1             	mov    %rax,%rcx
  406041:	ba 90 04 43 00       	mov    $0x430490,%edx
  406046:	be 98 04 43 00       	mov    $0x430498,%esi
  40604b:	bf 01 00 00 00       	mov    $0x1,%edi
  406050:	b8 00 00 00 00       	mov    $0x0,%eax
  406055:	e8 62 8c 02 00       	call   42ecbc <_Z10DebugPrintiPKcz>
  40605a:	b8 00 00 00 00       	mov    $0x0,%eax
  40605f:	48 8b 5d e8          	mov    -0x18(%rbp),%rbx
  406063:	64 48 33 1c 25 28 00 	xor    %fs:0x28,%rbx
  40606a:	00 00 
  40606c:	74 05                	je     406073 <_ZN8CManager14CheckUSBDeviceEPc+0x4eb>
  40606e:	e8 ad c9 ff ff       	call   402a20 <__stack_chk_fail@plt>
  406073:	48 81 c4 98 00 00 00 	add    $0x98,%rsp
  40607a:	5b                   	pop    %rbx
  40607b:	5d                   	pop    %rbp
  40607c:	c3                   	ret    
  40607d:	90                   	nop

000000000040607e <_ZN8CManager16IsPortObjExistedEPc>:
  40607e:	55                   	push   %rbp
  40607f:	48 89 e5             	mov    %rsp,%rbp
  406082:	48 83 ec 20          	sub    $0x20,%rsp
  406086:	48 89 7d e8          	mov    %rdi,-0x18(%rbp)
  40608a:	48 89 75 e0          	mov    %rsi,-0x20(%rbp)
  40608e:	8b 05 5c 55 23 00    	mov    0x23555c(%rip),%eax        # 63b5f0 <DebugLevel>
  406094:	25 00 00 01 00       	and    $0x10000,%eax
  406099:	85 c0                	test   %eax,%eax
  40609b:	74 19                	je     4060b6 <_ZN8CManager16IsPortObjExistedEPc+0x38>
  40609d:	ba 00 0a 43 00       	mov    $0x430a00,%edx
  4060a2:	be 70 02 43 00       	mov    $0x430270,%esi
  4060a7:	bf 00 00 01 00       	mov    $0x10000,%edi
  4060ac:	b8 00 00 00 00       	mov    $0x0,%eax
  4060b1:	e8 06 8c 02 00       	call   42ecbc <_Z10DebugPrintiPKcz>
  4060b6:	48 8b 45 e8          	mov    -0x18(%rbp),%rax
  4060ba:	48 8b 00             	mov    (%rax),%rax
  4060bd:	48 89 45 f8          	mov    %rax,-0x8(%rbp)
  4060c1:	eb 34                	jmp    4060f7 <_ZN8CManager16IsPortObjExistedEPc+0x79>
  4060c3:	48 8b 45 f8          	mov    -0x8(%rbp),%rax
  4060c7:	48 8d 90 88 02 00 00 	lea    0x288(%rax),%rdx
  4060ce:	48 8b 45 e0          	mov    -0x20(%rbp),%rax
  4060d2:	48 89 d6             	mov    %rdx,%rsi
  4060d5:	48 89 c7             	mov    %rax,%rdi
  4060d8:	e8 93 ca ff ff       	call   402b70 <strcmp@plt>
  4060dd:	85 c0                	test   %eax,%eax
  4060df:	75 07                	jne    4060e8 <_ZN8CManager16IsPortObjExistedEPc+0x6a>
  4060e1:	b8 00 00 00 00       	mov    $0x0,%eax
  4060e6:	eb 1b                	jmp    406103 <_ZN8CManager16IsPortObjExistedEPc+0x85>
  4060e8:	48 8b 45 f8          	mov    -0x8(%rbp),%rax
  4060ec:	48 8b 80 28 1d 00 00 	mov    0x1d28(%rax),%rax
  4060f3:	48 89 45 f8          	mov    %rax,-0x8(%rbp)
  4060f7:	48 83 7d f8 00       	cmpq   $0x0,-0x8(%rbp)
  4060fc:	75 c5                	jne    4060c3 <_ZN8CManager16IsPortObjExistedEPc+0x45>
  4060fe:	b8 ff ff ff ff       	mov    $0xffffffff,%eax
  406103:	c9                   	leave  
  406104:	c3                   	ret    
  406105:	90                   	nop

0000000000406106 <_ZN8CManager13ScanUSBDeviceEv>:
  406106:	55                   	push   %rbp
  406107:	48 89 e5             	mov    %rsp,%rbp
  40610a:	48 83 ec 50          	sub    $0x50,%rsp
  40610e:	48 89 7d b8          	mov    %rdi,-0x48(%rbp)
  406112:	64 48 8b 04 25 28 00 	mov    %fs:0x28,%rax
  406119:	00 00 
  40611b:	48 89 45 f8          	mov    %rax,-0x8(%rbp)
  40611f:	31 c0                	xor    %eax,%eax
  406121:	8b 05 c9 54 23 00    	mov    0x2354c9(%rip),%eax        # 63b5f0 <DebugLevel>
  406127:	25 00 00 10 00       	and    $0x100000,%eax
  40612c:	85 c0                	test   %eax,%eax
  40612e:	74 19                	je     406149 <_ZN8CManager13ScanUSBDeviceEv+0x43>
  406130:	ba 11 0a 43 00       	mov    $0x430a11,%edx
  406135:	be 70 02 43 00       	mov    $0x430270,%esi
  40613a:	bf 00 00 10 00       	mov    $0x100000,%edi
  40613f:	b8 00 00 00 00       	mov    $0x0,%eax
  406144:	e8 73 8b 02 00       	call   42ecbc <_Z10DebugPrintiPKcz>
  406149:	48 c7 45 d0 00 00 00 	movq   $0x0,-0x30(%rbp)
  406150:	00 
  406151:	48 c7 45 d8 00 00 00 	movq   $0x0,-0x28(%rbp)
  406158:	00 
  406159:	48 c7 45 e0 00 00 00 	movq   $0x0,-0x20(%rbp)
  406160:	00 
  406161:	48 c7 45 e8 00 00 00 	movq   $0x0,-0x18(%rbp)
  406168:	00 
  406169:	48 8b 45 b8          	mov    -0x48(%rbp),%rax
  40616d:	48 8b 40 08          	mov    0x8(%rax),%rax
  406171:	c6 80 ca 01 00 00 01 	movb   $0x1,0x1ca(%rax)
  406178:	bf b8 04 43 00       	mov    $0x4304b8,%edi
  40617d:	e8 de ca ff ff       	call   402c60 <opendir@plt>
  406182:	48 89 45 c0          	mov    %rax,-0x40(%rbp)
  406186:	48 83 7d c0 00       	cmpq   $0x0,-0x40(%rbp)
  40618b:	0f 94 c0             	sete   %al
  40618e:	84 c0                	test   %al,%al
  406190:	74 42                	je     4061d4 <_ZN8CManager13ScanUSBDeviceEv+0xce>
  406192:	8b 05 58 54 23 00    	mov    0x235458(%rip),%eax        # 63b5f0 <DebugLevel>
  406198:	25 00 00 01 00       	and    $0x10000,%eax
  40619d:	85 c0                	test   %eax,%eax
  40619f:	0f 84 70 01 00 00    	je     406315 <_ZN8CManager13ScanUSBDeviceEv+0x20f>
  4061a5:	e8 e6 c4 ff ff       	call   402690 <__errno_location@plt>
  4061aa:	8b 00                	mov    (%rax),%eax
  4061ac:	89 c7                	mov    %eax,%edi
  4061ae:	e8 8d c5 ff ff       	call   402740 <strerror@plt>
  4061b3:	48 89 c1             	mov    %rax,%rcx
  4061b6:	ba b8 04 43 00       	mov    $0x4304b8,%edx
  4061bb:	be bd 04 43 00       	mov    $0x4304bd,%esi
  4061c0:	bf 00 00 01 00       	mov    $0x10000,%edi
  4061c5:	b8 00 00 00 00       	mov    $0x0,%eax
  4061ca:	e8 ed 8a 02 00       	call   42ecbc <_Z10DebugPrintiPKcz>
  4061cf:	e9 41 01 00 00       	jmp    406315 <_ZN8CManager13ScanUSBDeviceEv+0x20f>
  4061d4:	e9 10 01 00 00       	jmp    4062e9 <_ZN8CManager13ScanUSBDeviceEv+0x1e3>
  4061d9:	48 8b 45 b8          	mov    -0x48(%rbp),%rax
  4061dd:	0f b7 50 10          	movzwl 0x10(%rax),%edx
  4061e1:	48 8b 45 b8          	mov    -0x48(%rbp),%rax
  4061e5:	48 8b 40 08          	mov    0x8(%rax),%rax
  4061e9:	0f b6 80 c9 01 00 00 	movzbl 0x1c9(%rax),%eax
  4061f0:	66 98                	cbtw   
  4061f2:	66 39 c2             	cmp    %ax,%dx
  4061f5:	7c 11                	jl     406208 <_ZN8CManager13ScanUSBDeviceEv+0x102>
  4061f7:	48 8b 45 c0          	mov    -0x40(%rbp),%rax
  4061fb:	48 89 c7             	mov    %rax,%rdi
  4061fe:	e8 1d cb ff ff       	call   402d20 <closedir@plt>
  406203:	e9 35 01 00 00       	jmp    40633d <_ZN8CManager13ScanUSBDeviceEv+0x237>
  406208:	48 8b 45 c8          	mov    -0x38(%rbp),%rax
  40620c:	48 83 c0 13          	add    $0x13,%rax
  406210:	be d4 04 43 00       	mov    $0x4304d4,%esi
  406215:	48 89 c7             	mov    %rax,%rdi
  406218:	e8 e3 c4 ff ff       	call   402700 <strstr@plt>
  40621d:	48 85 c0             	test   %rax,%rax
  406220:	0f 84 c3 00 00 00    	je     4062e9 <_ZN8CManager13ScanUSBDeviceEv+0x1e3>
  406226:	48 8b 45 c8          	mov    -0x38(%rbp),%rax
  40622a:	48 8d 50 13          	lea    0x13(%rax),%rdx
  40622e:	48 8d 45 d0          	lea    -0x30(%rbp),%rax
  406232:	be db 04 43 00       	mov    $0x4304db,%esi
  406237:	48 89 c7             	mov    %rax,%rdi
  40623a:	b8 00 00 00 00       	mov    $0x0,%eax
  40623f:	e8 9c c4 ff ff       	call   4026e0 <sprintf@plt>
  406244:	8b 05 a6 53 23 00    	mov    0x2353a6(%rip),%eax        # 63b5f0 <DebugLevel>
  40624a:	25 00 00 01 00       	and    $0x10000,%eax
  40624f:	85 c0                	test   %eax,%eax
  406251:	74 1b                	je     40626e <_ZN8CManager13ScanUSBDeviceEv+0x168>
  406253:	48 8d 45 d0          	lea    -0x30(%rbp),%rax
  406257:	48 89 c2             	mov    %rax,%rdx
  40625a:	be e8 04 43 00       	mov    $0x4304e8,%esi
  40625f:	bf 00 00 01 00       	mov    $0x10000,%edi
  406264:	b8 00 00 00 00       	mov    $0x0,%eax
  406269:	e8 4e 8a 02 00       	call   42ecbc <_Z10DebugPrintiPKcz>
  40626e:	48 8d 55 d0          	lea    -0x30(%rbp),%rdx
  406272:	48 8b 45 b8          	mov    -0x48(%rbp),%rax
  406276:	48 89 d6             	mov    %rdx,%rsi
  406279:	48 89 c7             	mov    %rax,%rdi
  40627c:	e8 fd fd ff ff       	call   40607e <_ZN8CManager16IsPortObjExistedEPc>
  406281:	85 c0                	test   %eax,%eax
  406283:	0f 94 c0             	sete   %al
  406286:	84 c0                	test   %al,%al
  406288:	74 2c                	je     4062b6 <_ZN8CManager13ScanUSBDeviceEv+0x1b0>
  40628a:	8b 05 60 53 23 00    	mov    0x235360(%rip),%eax        # 63b5f0 <DebugLevel>
  406290:	25 00 00 01 00       	and    $0x10000,%eax
  406295:	85 c0                	test   %eax,%eax
  406297:	74 1b                	je     4062b4 <_ZN8CManager13ScanUSBDeviceEv+0x1ae>
  406299:	48 8d 45 d0          	lea    -0x30(%rbp),%rax
  40629d:	48 89 c2             	mov    %rax,%rdx
  4062a0:	be 08 05 43 00       	mov    $0x430508,%esi
  4062a5:	bf 00 00 01 00       	mov    $0x10000,%edi
  4062aa:	b8 00 00 00 00       	mov    $0x0,%eax
  4062af:	e8 08 8a 02 00       	call   42ecbc <_Z10DebugPrintiPKcz>
  4062b4:	eb 33                	jmp    4062e9 <_ZN8CManager13ScanUSBDeviceEv+0x1e3>
  4062b6:	48 8d 55 d0          	lea    -0x30(%rbp),%rdx
  4062ba:	48 8b 45 b8          	mov    -0x48(%rbp),%rax
  4062be:	48 89 d6             	mov    %rdx,%rsi
  4062c1:	48 89 c7             	mov    %rax,%rdi
  4062c4:	e8 bf f8 ff ff       	call   405b88 <_ZN8CManager14CheckUSBDeviceEPc>
  4062c9:	85 c0                	test   %eax,%eax
  4062cb:	0f 94 c0             	sete   %al
  4062ce:	84 c0                	test   %al,%al
  4062d0:	74 17                	je     4062e9 <_ZN8CManager13ScanUSBDeviceEv+0x1e3>
  4062d2:	48 8b 55 b8          	mov    -0x48(%rbp),%rdx
  4062d6:	48 8d 4d d0          	lea    -0x30(%rbp),%rcx
  4062da:	48 8b 45 b8          	mov    -0x48(%rbp),%rax
  4062de:	48 89 ce             	mov    %rcx,%rsi
  4062e1:	48 89 c7             	mov    %rax,%rdi
  4062e4:	e8 6b f6 ff ff       	call   405954 <_ZN8CManager16AddandInitDeviceEPcPP13CDeviceObject>
  4062e9:	48 8b 45 c0          	mov    -0x40(%rbp),%rax
  4062ed:	48 89 c7             	mov    %rax,%rdi
  4062f0:	e8 9b c9 ff ff       	call   402c90 <readdir@plt>
  4062f5:	48 89 45 c8          	mov    %rax,-0x38(%rbp)
  4062f9:	48 83 7d c8 00       	cmpq   $0x0,-0x38(%rbp)
  4062fe:	0f 95 c0             	setne  %al
  406301:	84 c0                	test   %al,%al
  406303:	0f 85 d0 fe ff ff    	jne    4061d9 <_ZN8CManager13ScanUSBDeviceEv+0xd3>
  406309:	48 8b 45 c0          	mov    -0x40(%rbp),%rax
  40630d:	48 89 c7             	mov    %rax,%rdi
  406310:	e8 0b ca ff ff       	call   402d20 <closedir@plt>
  406315:	8b 05 d5 52 23 00    	mov    0x2352d5(%rip),%eax        # 63b5f0 <DebugLevel>
  40631b:	25 00 00 01 00       	and    $0x10000,%eax
  406320:	85 c0                	test   %eax,%eax
  406322:	74 19                	je     40633d <_ZN8CManager13ScanUSBDeviceEv+0x237>
  406324:	ba 11 0a 43 00       	mov    $0x430a11,%edx
  406329:	be 29 05 43 00       	mov    $0x430529,%esi
  40632e:	bf 00 00 01 00       	mov    $0x10000,%edi
  406333:	b8 00 00 00 00       	mov    $0x0,%eax
  406338:	e8 7f 89 02 00       	call   42ecbc <_Z10DebugPrintiPKcz>
  40633d:	48 8b 45 f8          	mov    -0x8(%rbp),%rax
  406341:	64 48 33 04 25 28 00 	xor    %fs:0x28,%rax
  406348:	00 00 
  40634a:	74 05                	je     406351 <_ZN8CManager13ScanUSBDeviceEv+0x24b>
  40634c:	e8 cf c6 ff ff       	call   402a20 <__stack_chk_fail@plt>
  406351:	c9                   	leave  
  406352:	c3                   	ret    

0000000000406353 <_Z11DispatchCmdv>:
  406353:	55                   	push   %rbp
  406354:	48 89 e5             	mov    %rsp,%rbp
  406357:	8b 05 93 52 23 00    	mov    0x235293(%rip),%eax        # 63b5f0 <DebugLevel>
  40635d:	25 00 00 10 00       	and    $0x100000,%eax
  406362:	85 c0                	test   %eax,%eax
  406364:	74 19                	je     40637f <_Z11DispatchCmdv+0x2c>
  406366:	ba 1f 0a 43 00       	mov    $0x430a1f,%edx
  40636b:	be 70 02 43 00       	mov    $0x430270,%esi
  406370:	bf 00 00 10 00       	mov    $0x100000,%edi
  406375:	b8 00 00 00 00       	mov    $0x0,%eax
  40637a:	e8 3d 89 02 00       	call   42ecbc <_Z10DebugPrintiPKcz>
  40637f:	0f b6 05 c2 53 23 00 	movzbl 0x2353c2(%rip),%eax        # 63b748 <_ZL9m_Parsing+0x8>
  406386:	0f b6 c0             	movzbl %al,%eax
  406389:	83 f8 39             	cmp    $0x39,%eax
  40638c:	74 0e                	je     40639c <_Z11DispatchCmdv+0x49>
  40638e:	83 f8 41             	cmp    $0x41,%eax
  406391:	0f 84 8b 00 00 00    	je     406422 <_Z11DispatchCmdv+0xcf>
  406397:	e9 b2 00 00 00       	jmp    40644e <_Z11DispatchCmdv+0xfb>
  40639c:	8b 05 4e 52 23 00    	mov    0x23524e(%rip),%eax        # 63b5f0 <DebugLevel>
  4063a2:	25 00 00 10 00       	and    $0x100000,%eax
  4063a7:	85 c0                	test   %eax,%eax
  4063a9:	74 2c                	je     4063d7 <_Z11DispatchCmdv+0x84>
  4063ab:	0f b6 05 98 53 23 00 	movzbl 0x235398(%rip),%eax        # 63b74a <_ZL9m_Parsing+0xa>
  4063b2:	0f b6 d0             	movzbl %al,%edx
  4063b5:	0f b6 05 8d 53 23 00 	movzbl 0x23538d(%rip),%eax        # 63b749 <_ZL9m_Parsing+0x9>
  4063bc:	0f b6 c0             	movzbl %al,%eax
  4063bf:	89 d1                	mov    %edx,%ecx
  4063c1:	89 c2                	mov    %eax,%edx
  4063c3:	be 38 05 43 00       	mov    $0x430538,%esi
  4063c8:	bf 00 00 10 00       	mov    $0x100000,%edi
  4063cd:	b8 00 00 00 00       	mov    $0x0,%eax
  4063d2:	e8 e5 88 02 00       	call   42ecbc <_Z10DebugPrintiPKcz>
  4063d7:	0f b6 05 6b 53 23 00 	movzbl 0x23536b(%rip),%eax        # 63b749 <_ZL9m_Parsing+0x9>
  4063de:	84 c0                	test   %al,%al
  4063e0:	75 0b                	jne    4063ed <_Z11DispatchCmdv+0x9a>
  4063e2:	0f b6 05 61 53 23 00 	movzbl 0x235361(%rip),%eax        # 63b74a <_ZL9m_Parsing+0xa>
  4063e9:	84 c0                	test   %al,%al
  4063eb:	74 2c                	je     406419 <_Z11DispatchCmdv+0xc6>
  4063ed:	c6 05 4f 53 23 00 01 	movb   $0x1,0x23534f(%rip)        # 63b743 <_ZL9m_Parsing+0x3>
  4063f4:	8b 05 f6 51 23 00    	mov    0x2351f6(%rip),%eax        # 63b5f0 <DebugLevel>
  4063fa:	25 00 00 01 00       	and    $0x10000,%eax
  4063ff:	85 c0                	test   %eax,%eax
  406401:	74 14                	je     406417 <_Z11DispatchCmdv+0xc4>
  406403:	be 71 05 43 00       	mov    $0x430571,%esi
  406408:	bf 00 00 01 00       	mov    $0x10000,%edi
  40640d:	b8 00 00 00 00       	mov    $0x0,%eax
  406412:	e8 a5 88 02 00       	call   42ecbc <_Z10DebugPrintiPKcz>
  406417:	eb 3d                	jmp    406456 <_Z11DispatchCmdv+0x103>
  406419:	c6 05 23 53 23 00 00 	movb   $0x0,0x235323(%rip)        # 63b743 <_ZL9m_Parsing+0x3>
  406420:	eb 34                	jmp    406456 <_Z11DispatchCmdv+0x103>
  406422:	8b 05 c8 51 23 00    	mov    0x2351c8(%rip),%eax        # 63b5f0 <DebugLevel>
  406428:	25 00 00 01 00       	and    $0x10000,%eax
  40642d:	85 c0                	test   %eax,%eax
  40642f:	74 14                	je     406445 <_Z11DispatchCmdv+0xf2>
  406431:	be 8d 05 43 00       	mov    $0x43058d,%esi
  406436:	bf 00 00 01 00       	mov    $0x10000,%edi
  40643b:	b8 00 00 00 00       	mov    $0x0,%eax
  406440:	e8 77 88 02 00       	call   42ecbc <_Z10DebugPrintiPKcz>
  406445:	c6 05 f7 52 23 00 01 	movb   $0x1,0x2352f7(%rip)        # 63b743 <_ZL9m_Parsing+0x3>
  40644c:	eb 08                	jmp    406456 <_Z11DispatchCmdv+0x103>
  40644e:	c6 05 ee 52 23 00 00 	movb   $0x0,0x2352ee(%rip)        # 63b743 <_ZL9m_Parsing+0x3>
  406455:	90                   	nop
  406456:	5d                   	pop    %rbp
  406457:	c3                   	ret    

0000000000406458 <_Z17Parse232CmdPacketPhi>:
  406458:	55                   	push   %rbp
  406459:	48 89 e5             	mov    %rsp,%rbp
  40645c:	48 83 ec 20          	sub    $0x20,%rsp
  406460:	48 89 7d e8          	mov    %rdi,-0x18(%rbp)
  406464:	89 75 e4             	mov    %esi,-0x1c(%rbp)
  406467:	8b 05 83 51 23 00    	mov    0x235183(%rip),%eax        # 63b5f0 <DebugLevel>
  40646d:	25 00 00 01 00       	and    $0x10000,%eax
  406472:	85 c0                	test   %eax,%eax
  406474:	74 19                	je     40648f <_Z17Parse232CmdPacketPhi+0x37>
  406476:	ba 30 0a 43 00       	mov    $0x430a30,%edx
  40647b:	be 70 02 43 00       	mov    $0x430270,%esi
  406480:	bf 00 00 01 00       	mov    $0x10000,%edi
  406485:	b8 00 00 00 00       	mov    $0x0,%eax
  40648a:	e8 2d 88 02 00       	call   42ecbc <_Z10DebugPrintiPKcz>
  40648f:	c7 45 fc 00 00 00 00 	movl   $0x0,-0x4(%rbp)
  406496:	e9 34 01 00 00       	jmp    4065cf <_Z17Parse232CmdPacketPhi+0x177>
  40649b:	8b 45 fc             	mov    -0x4(%rbp),%eax
  40649e:	48 63 d0             	movslq %eax,%rdx
  4064a1:	48 8b 45 e8          	mov    -0x18(%rbp),%rax
  4064a5:	48 01 d0             	add    %rdx,%rax
  4064a8:	0f b6 00             	movzbl (%rax),%eax
  4064ab:	88 45 fb             	mov    %al,-0x5(%rbp)
  4064ae:	0f b6 05 8b 52 23 00 	movzbl 0x23528b(%rip),%eax        # 63b740 <_ZL9m_Parsing>
  4064b5:	84 c0                	test   %al,%al
  4064b7:	75 5a                	jne    406513 <_Z17Parse232CmdPacketPhi+0xbb>
  4064b9:	80 7d fb 0a          	cmpb   $0xa,-0x5(%rbp)
  4064bd:	75 54                	jne    406513 <_Z17Parse232CmdPacketPhi+0xbb>
  4064bf:	c6 05 7a 52 23 00 01 	movb   $0x1,0x23527a(%rip)        # 63b740 <_ZL9m_Parsing>
  4064c6:	c6 05 76 52 23 00 00 	movb   $0x0,0x235276(%rip)        # 63b743 <_ZL9m_Parsing+0x3>
  4064cd:	c6 05 6e 52 23 00 00 	movb   $0x0,0x23526e(%rip)        # 63b742 <_ZL9m_Parsing+0x2>
  4064d4:	c6 05 6a 52 23 00 00 	movb   $0x0,0x23526a(%rip)        # 63b745 <_ZL9m_Parsing+0x5>
  4064db:	ba 40 00 00 00       	mov    $0x40,%edx
  4064e0:	be 00 00 00 00       	mov    $0x0,%esi
  4064e5:	bf 46 b7 63 00       	mov    $0x63b746,%edi
  4064ea:	e8 f1 c2 ff ff       	call   4027e0 <memset@plt>
  4064ef:	0f b6 05 4f 52 23 00 	movzbl 0x23524f(%rip),%eax        # 63b745 <_ZL9m_Parsing+0x5>
  4064f6:	8d 50 01             	lea    0x1(%rax),%edx
  4064f9:	88 15 46 52 23 00    	mov    %dl,0x235246(%rip)        # 63b745 <_ZL9m_Parsing+0x5>
  4064ff:	0f b6 c0             	movzbl %al,%eax
  406502:	48 98                	cltq   
  406504:	0f b6 55 fb          	movzbl -0x5(%rbp),%edx
  406508:	88 90 46 b7 63 00    	mov    %dl,0x63b746(%rax)
  40650e:	e9 b8 00 00 00       	jmp    4065cb <_Z17Parse232CmdPacketPhi+0x173>
  406513:	0f b6 05 26 52 23 00 	movzbl 0x235226(%rip),%eax        # 63b740 <_ZL9m_Parsing>
  40651a:	3c 01                	cmp    $0x1,%al
  40651c:	0f 85 a9 00 00 00    	jne    4065cb <_Z17Parse232CmdPacketPhi+0x173>
  406522:	0f b6 05 19 52 23 00 	movzbl 0x235219(%rip),%eax        # 63b742 <_ZL9m_Parsing+0x2>
  406529:	84 c0                	test   %al,%al
  40652b:	75 40                	jne    40656d <_Z17Parse232CmdPacketPhi+0x115>
  40652d:	0f b6 45 fb          	movzbl -0x5(%rbp),%eax
  406531:	83 c0 02             	add    $0x2,%eax
  406534:	88 05 08 52 23 00    	mov    %al,0x235208(%rip)        # 63b742 <_ZL9m_Parsing+0x2>
  40653a:	0f b6 05 01 52 23 00 	movzbl 0x235201(%rip),%eax        # 63b742 <_ZL9m_Parsing+0x2>
  406541:	3c 40                	cmp    $0x40,%al
  406543:	76 07                	jbe    40654c <_Z17Parse232CmdPacketPhi+0xf4>
  406545:	c6 05 f6 51 23 00 40 	movb   $0x40,0x2351f6(%rip)        # 63b742 <_ZL9m_Parsing+0x2>
  40654c:	0f b6 05 f2 51 23 00 	movzbl 0x2351f2(%rip),%eax        # 63b745 <_ZL9m_Parsing+0x5>
  406553:	8d 50 01             	lea    0x1(%rax),%edx
  406556:	88 15 e9 51 23 00    	mov    %dl,0x2351e9(%rip)        # 63b745 <_ZL9m_Parsing+0x5>
  40655c:	0f b6 c0             	movzbl %al,%eax
  40655f:	48 98                	cltq   
  406561:	0f b6 55 fb          	movzbl -0x5(%rbp),%edx
  406565:	88 90 46 b7 63 00    	mov    %dl,0x63b746(%rax)
  40656b:	eb 5e                	jmp    4065cb <_Z17Parse232CmdPacketPhi+0x173>
  40656d:	0f b6 05 d1 51 23 00 	movzbl 0x2351d1(%rip),%eax        # 63b745 <_ZL9m_Parsing+0x5>
  406574:	8d 50 01             	lea    0x1(%rax),%edx
  406577:	88 15 c8 51 23 00    	mov    %dl,0x2351c8(%rip)        # 63b745 <_ZL9m_Parsing+0x5>
  40657d:	0f b6 c0             	movzbl %al,%eax
  406580:	48 98                	cltq   
  406582:	0f b6 55 fb          	movzbl -0x5(%rbp),%edx
  406586:	88 90 46 b7 63 00    	mov    %dl,0x63b746(%rax)
  40658c:	0f b6 15 b2 51 23 00 	movzbl 0x2351b2(%rip),%edx        # 63b745 <_ZL9m_Parsing+0x5>
  406593:	0f b6 05 a8 51 23 00 	movzbl 0x2351a8(%rip),%eax        # 63b742 <_ZL9m_Parsing+0x2>
  40659a:	38 c2                	cmp    %al,%dl
  40659c:	75 2c                	jne    4065ca <_Z17Parse232CmdPacketPhi+0x172>
  40659e:	c6 05 9b 51 23 00 00 	movb   $0x0,0x23519b(%rip)        # 63b740 <_ZL9m_Parsing>
  4065a5:	c6 05 96 51 23 00 00 	movb   $0x0,0x235196(%rip)        # 63b742 <_ZL9m_Parsing+0x2>
  4065ac:	c6 05 92 51 23 00 00 	movb   $0x0,0x235192(%rip)        # 63b745 <_ZL9m_Parsing+0x5>
  4065b3:	e8 9b fd ff ff       	call   406353 <_Z11DispatchCmdv>
  4065b8:	0f b6 05 84 51 23 00 	movzbl 0x235184(%rip),%eax        # 63b743 <_ZL9m_Parsing+0x3>
  4065bf:	3c 01                	cmp    $0x1,%al
  4065c1:	75 07                	jne    4065ca <_Z17Parse232CmdPacketPhi+0x172>
  4065c3:	b8 01 00 00 00       	mov    $0x1,%eax
  4065c8:	eb 16                	jmp    4065e0 <_Z17Parse232CmdPacketPhi+0x188>
  4065ca:	90                   	nop
  4065cb:	83 45 fc 01          	addl   $0x1,-0x4(%rbp)
  4065cf:	8b 45 fc             	mov    -0x4(%rbp),%eax
  4065d2:	3b 45 e4             	cmp    -0x1c(%rbp),%eax
  4065d5:	0f 8c c0 fe ff ff    	jl     40649b <_Z17Parse232CmdPacketPhi+0x43>
  4065db:	b8 00 00 00 00       	mov    $0x0,%eax
  4065e0:	c9                   	leave  
  4065e1:	c3                   	ret    

00000000004065e2 <_Z18WaitDeviceResponsei>:
  4065e2:	55                   	push   %rbp
  4065e3:	48 89 e5             	mov    %rsp,%rbp
  4065e6:	53                   	push   %rbx
  4065e7:	48 81 ec 28 03 00 00 	sub    $0x328,%rsp
  4065ee:	89 bd dc fc ff ff    	mov    %edi,-0x324(%rbp)
  4065f4:	64 48 8b 04 25 28 00 	mov    %fs:0x28,%rax
  4065fb:	00 00 
  4065fd:	48 89 45 e8          	mov    %rax,-0x18(%rbp)
  406601:	31 c0                	xor    %eax,%eax
  406603:	48 8d b5 a0 fd ff ff 	lea    -0x260(%rbp),%rsi
  40660a:	b8 00 00 00 00       	mov    $0x0,%eax
  40660f:	ba 08 00 00 00       	mov    $0x8,%edx
  406614:	48 89 f7             	mov    %rsi,%rdi
  406617:	48 89 d1             	mov    %rdx,%rcx
  40661a:	f3 48 ab             	rep stos %rax,%es:(%rdi)
  40661d:	48 8d b5 e0 fd ff ff 	lea    -0x220(%rbp),%rsi
  406624:	b8 00 00 00 00       	mov    $0x0,%eax
  406629:	ba 40 00 00 00       	mov    $0x40,%edx
  40662e:	48 89 f7             	mov    %rsi,%rdi
  406631:	48 89 d1             	mov    %rdx,%rcx
  406634:	f3 48 ab             	rep stos %rax,%es:(%rdi)
  406637:	48 c7 85 80 fd ff ff 	movq   $0x0,-0x280(%rbp)
  40663e:	00 00 00 00 
  406642:	48 c7 85 88 fd ff ff 	movq   $0x0,-0x278(%rbp)
  406649:	00 00 00 00 
  40664d:	c7 85 90 fd ff ff 00 	movl   $0x0,-0x270(%rbp)
  406654:	00 00 00 
  406657:	8b 05 93 4f 23 00    	mov    0x234f93(%rip),%eax        # 63b5f0 <DebugLevel>
  40665d:	25 00 00 01 00       	and    $0x10000,%eax
  406662:	85 c0                	test   %eax,%eax
  406664:	74 14                	je     40667a <_Z18WaitDeviceResponsei+0x98>
  406666:	be 9a 05 43 00       	mov    $0x43059a,%esi
  40666b:	bf 00 00 01 00       	mov    $0x10000,%edi
  406670:	b8 00 00 00 00       	mov    $0x0,%eax
  406675:	e8 42 86 02 00       	call   42ecbc <_Z10DebugPrintiPKcz>
  40667a:	ba 10 00 00 00       	mov    $0x10,%edx
  40667f:	b8 00 00 00 00       	mov    $0x0,%eax
  406684:	48 8d b5 00 fd ff ff 	lea    -0x300(%rbp),%rsi
  40668b:	48 89 d1             	mov    %rdx,%rcx
  40668e:	48 89 f7             	mov    %rsi,%rdi
  406691:	fc                   	cld    
  406692:	f3 48 ab             	rep stos %rax,%es:(%rdi)
  406695:	89 f8                	mov    %edi,%eax
  406697:	89 ca                	mov    %ecx,%edx
  406699:	89 95 e4 fc ff ff    	mov    %edx,-0x31c(%rbp)
  40669f:	89 85 e8 fc ff ff    	mov    %eax,-0x318(%rbp)
  4066a5:	b8 08 00 00 00       	mov    $0x8,%eax
  4066aa:	8d 1c c5 00 00 00 00 	lea    0x0(,%rax,8),%ebx
  4066b1:	8b 85 dc fc ff ff    	mov    -0x324(%rbp),%eax
  4066b7:	99                   	cltd   
  4066b8:	f7 fb                	idiv   %ebx
  4066ba:	89 c6                	mov    %eax,%esi
  4066bc:	48 63 c6             	movslq %esi,%rax
  4066bf:	48 8b bc c5 00 fd ff 	mov    -0x300(%rbp,%rax,8),%rdi
  4066c6:	ff 
  4066c7:	b8 08 00 00 00       	mov    $0x8,%eax
  4066cc:	8d 0c c5 00 00 00 00 	lea    0x0(,%rax,8),%ecx
  4066d3:	8b 85 dc fc ff ff    	mov    -0x324(%rbp),%eax
  4066d9:	99                   	cltd   
  4066da:	f7 f9                	idiv   %ecx
  4066dc:	89 d0                	mov    %edx,%eax
  4066de:	ba 01 00 00 00       	mov    $0x1,%edx
  4066e3:	89 c1                	mov    %eax,%ecx
  4066e5:	48 d3 e2             	shl    %cl,%rdx
  4066e8:	48 89 d0             	mov    %rdx,%rax
  4066eb:	48 09 c7             	or     %rax,%rdi
  4066ee:	48 89 fa             	mov    %rdi,%rdx
  4066f1:	48 63 c6             	movslq %esi,%rax
  4066f4:	48 89 94 c5 00 fd ff 	mov    %rdx,-0x300(%rbp,%rax,8)
  4066fb:	ff 
  4066fc:	48 c7 85 f0 fc ff ff 	movq   $0x0,-0x310(%rbp)
  406703:	00 00 00 00 
  406707:	48 c7 85 f8 fc ff ff 	movq   $0xc350,-0x308(%rbp)
  40670e:	50 c3 00 00 
  406712:	8b 85 dc fc ff ff    	mov    -0x324(%rbp),%eax
  406718:	8d 78 01             	lea    0x1(%rax),%edi
  40671b:	48 8d 95 f0 fc ff ff 	lea    -0x310(%rbp),%rdx
  406722:	48 8d 85 00 fd ff ff 	lea    -0x300(%rbp),%rax
  406729:	49 89 d0             	mov    %rdx,%r8
  40672c:	b9 00 00 00 00       	mov    $0x0,%ecx
  406731:	ba 00 00 00 00       	mov    $0x0,%edx
  406736:	48 89 c6             	mov    %rax,%rsi
  406739:	e8 72 c2 ff ff       	call   4029b0 <select@plt>
  40673e:	b8 08 00 00 00       	mov    $0x8,%eax
  406743:	8d 1c c5 00 00 00 00 	lea    0x0(,%rax,8),%ebx
  40674a:	8b 85 dc fc ff ff    	mov    -0x324(%rbp),%eax
  406750:	99                   	cltd   
  406751:	f7 fb                	idiv   %ebx
  406753:	48 98                	cltq   
  406755:	48 8b b4 c5 00 fd ff 	mov    -0x300(%rbp,%rax,8),%rsi
  40675c:	ff 
  40675d:	b8 08 00 00 00       	mov    $0x8,%eax
  406762:	8d 0c c5 00 00 00 00 	lea    0x0(,%rax,8),%ecx
  406769:	8b 85 dc fc ff ff    	mov    -0x324(%rbp),%eax
  40676f:	99                   	cltd   
  406770:	f7 f9                	idiv   %ecx
  406772:	89 d0                	mov    %edx,%eax
  406774:	89 c1                	mov    %eax,%ecx
  406776:	48 d3 fe             	sar    %cl,%rsi
  406779:	48 89 f0             	mov    %rsi,%rax
  40677c:	83 e0 01             	and    $0x1,%eax
  40677f:	48 85 c0             	test   %rax,%rax
  406782:	0f 84 4b 01 00 00    	je     4068d3 <_Z18WaitDeviceResponsei+0x2f1>
  406788:	e9 10 01 00 00       	jmp    40689d <_Z18WaitDeviceResponsei+0x2bb>
  40678d:	48 8d 85 e0 fd ff ff 	lea    -0x220(%rbp),%rax
  406794:	ba 00 02 00 00       	mov    $0x200,%edx
  406799:	be 00 00 00 00       	mov    $0x0,%esi
  40679e:	48 89 c7             	mov    %rax,%rdi
  4067a1:	e8 3a c0 ff ff       	call   4027e0 <memset@plt>
  4067a6:	c7 85 e0 fc ff ff 00 	movl   $0x0,-0x320(%rbp)
  4067ad:	00 00 00 
  4067b0:	eb 4c                	jmp    4067fe <_Z18WaitDeviceResponsei+0x21c>
  4067b2:	8b 85 e0 fc ff ff    	mov    -0x320(%rbp),%eax
  4067b8:	48 98                	cltq   
  4067ba:	0f b6 84 05 a0 fd ff 	movzbl -0x260(%rbp,%rax,1),%eax
  4067c1:	ff 
  4067c2:	0f b6 d0             	movzbl %al,%edx
  4067c5:	48 8d 85 80 fd ff ff 	lea    -0x280(%rbp),%rax
  4067cc:	be b6 05 43 00       	mov    $0x4305b6,%esi
  4067d1:	48 89 c7             	mov    %rax,%rdi
  4067d4:	b8 00 00 00 00       	mov    $0x0,%eax
  4067d9:	e8 02 bf ff ff       	call   4026e0 <sprintf@plt>
  4067de:	48 8d 95 80 fd ff ff 	lea    -0x280(%rbp),%rdx
  4067e5:	48 8d 85 e0 fd ff ff 	lea    -0x220(%rbp),%rax
  4067ec:	48 89 d6             	mov    %rdx,%rsi
  4067ef:	48 89 c7             	mov    %rax,%rdi
  4067f2:	e8 c9 c5 ff ff       	call   402dc0 <strcat@plt>
  4067f7:	83 85 e0 fc ff ff 01 	addl   $0x1,-0x320(%rbp)
  4067fe:	8b 85 e0 fc ff ff    	mov    -0x320(%rbp),%eax
  406804:	3b 85 ec fc ff ff    	cmp    -0x314(%rbp),%eax
  40680a:	7c a6                	jl     4067b2 <_Z18WaitDeviceResponsei+0x1d0>
  40680c:	8b 05 de 4d 23 00    	mov    0x234dde(%rip),%eax        # 63b5f0 <DebugLevel>
  406812:	25 00 00 01 00       	and    $0x10000,%eax
  406817:	85 c0                	test   %eax,%eax
  406819:	74 26                	je     406841 <_Z18WaitDeviceResponsei+0x25f>
  40681b:	48 8d 95 e0 fd ff ff 	lea    -0x220(%rbp),%rdx
  406822:	8b 85 ec fc ff ff    	mov    -0x314(%rbp),%eax
  406828:	48 89 d1             	mov    %rdx,%rcx
  40682b:	89 c2                	mov    %eax,%edx
  40682d:	be bd 05 43 00       	mov    $0x4305bd,%esi
  406832:	bf 00 00 01 00       	mov    $0x10000,%edi
  406837:	b8 00 00 00 00       	mov    $0x0,%eax
  40683c:	e8 7b 84 02 00       	call   42ecbc <_Z10DebugPrintiPKcz>
  406841:	8b 95 ec fc ff ff    	mov    -0x314(%rbp),%edx
  406847:	48 8d 85 a0 fd ff ff 	lea    -0x260(%rbp),%rax
  40684e:	89 d6                	mov    %edx,%esi
  406850:	48 89 c7             	mov    %rax,%rdi
  406853:	e8 00 fc ff ff       	call   406458 <_Z17Parse232CmdPacketPhi>
  406858:	85 c0                	test   %eax,%eax
  40685a:	0f 95 c0             	setne  %al
  40685d:	84 c0                	test   %al,%al
  40685f:	74 32                	je     406893 <_Z18WaitDeviceResponsei+0x2b1>
  406861:	8b 05 89 4d 23 00    	mov    0x234d89(%rip),%eax        # 63b5f0 <DebugLevel>
  406867:	25 00 00 01 00       	and    $0x10000,%eax
  40686c:	85 c0                	test   %eax,%eax
  40686e:	74 19                	je     406889 <_Z18WaitDeviceResponsei+0x2a7>
  406870:	ba 50 0a 43 00       	mov    $0x430a50,%edx
  406875:	be db 05 43 00       	mov    $0x4305db,%esi
  40687a:	bf 00 00 01 00       	mov    $0x10000,%edi
  40687f:	b8 00 00 00 00       	mov    $0x0,%eax
  406884:	e8 33 84 02 00       	call   42ecbc <_Z10DebugPrintiPKcz>
  406889:	b8 00 00 00 00       	mov    $0x0,%eax
  40688e:	e9 95 00 00 00       	jmp    406928 <_Z18WaitDeviceResponsei+0x346>
  406893:	bf 50 c3 00 00       	mov    $0xc350,%edi
  406898:	e8 03 c3 ff ff       	call   402ba0 <usleep@plt>
  40689d:	48 8d 8d a0 fd ff ff 	lea    -0x260(%rbp),%rcx
  4068a4:	8b 85 dc fc ff ff    	mov    -0x324(%rbp),%eax
  4068aa:	ba 40 00 00 00       	mov    $0x40,%edx
  4068af:	48 89 ce             	mov    %rcx,%rsi
  4068b2:	89 c7                	mov    %eax,%edi
  4068b4:	e8 27 c3 ff ff       	call   402be0 <read@plt>
  4068b9:	89 85 ec fc ff ff    	mov    %eax,-0x314(%rbp)
  4068bf:	83 bd ec fc ff ff 00 	cmpl   $0x0,-0x314(%rbp)
  4068c6:	0f 9f c0             	setg   %al
  4068c9:	84 c0                	test   %al,%al
  4068cb:	0f 85 bc fe ff ff    	jne    40678d <_Z18WaitDeviceResponsei+0x1ab>
  4068d1:	eb 28                	jmp    4068fb <_Z18WaitDeviceResponsei+0x319>
  4068d3:	8b 05 17 4d 23 00    	mov    0x234d17(%rip),%eax        # 63b5f0 <DebugLevel>
  4068d9:	25 00 00 01 00       	and    $0x10000,%eax
  4068de:	85 c0                	test   %eax,%eax
  4068e0:	74 19                	je     4068fb <_Z18WaitDeviceResponsei+0x319>
  4068e2:	ba 50 0a 43 00       	mov    $0x430a50,%edx
  4068e7:	be ec 05 43 00       	mov    $0x4305ec,%esi
  4068ec:	bf 00 00 01 00       	mov    $0x10000,%edi
  4068f1:	b8 00 00 00 00       	mov    $0x0,%eax
  4068f6:	e8 c1 83 02 00       	call   42ecbc <_Z10DebugPrintiPKcz>
  4068fb:	8b 05 ef 4c 23 00    	mov    0x234cef(%rip),%eax        # 63b5f0 <DebugLevel>
  406901:	25 00 00 01 00       	and    $0x10000,%eax
  406906:	85 c0                	test   %eax,%eax
  406908:	74 19                	je     406923 <_Z18WaitDeviceResponsei+0x341>
  40690a:	ba 50 0a 43 00       	mov    $0x430a50,%edx
  40690f:	be 03 06 43 00       	mov    $0x430603,%esi
  406914:	bf 00 00 01 00       	mov    $0x10000,%edi
  406919:	b8 00 00 00 00       	mov    $0x0,%eax
  40691e:	e8 99 83 02 00       	call   42ecbc <_Z10DebugPrintiPKcz>
  406923:	b8 ff ff ff ff       	mov    $0xffffffff,%eax
  406928:	48 8b 5d e8          	mov    -0x18(%rbp),%rbx
  40692c:	64 48 33 1c 25 28 00 	xor    %fs:0x28,%rbx
  406933:	00 00 
  406935:	74 05                	je     40693c <_Z18WaitDeviceResponsei+0x35a>
  406937:	e8 e4 c0 ff ff       	call   402a20 <__stack_chk_fail@plt>
  40693c:	48 81 c4 28 03 00 00 	add    $0x328,%rsp
  406943:	5b                   	pop    %rbx
  406944:	5d                   	pop    %rbp
  406945:	c3                   	ret    

0000000000406946 <_ZN8CManager15CheckIAPVersionEi>:
  406946:	55                   	push   %rbp
  406947:	48 89 e5             	mov    %rsp,%rbp
  40694a:	53                   	push   %rbx
  40694b:	48 83 ec 38          	sub    $0x38,%rsp
  40694f:	48 89 7d c8          	mov    %rdi,-0x38(%rbp)
  406953:	89 75 c4             	mov    %esi,-0x3c(%rbp)
  406956:	64 48 8b 04 25 28 00 	mov    %fs:0x28,%rax
  40695d:	00 00 
  40695f:	48 89 45 e8          	mov    %rax,-0x18(%rbp)
  406963:	31 c0                	xor    %eax,%eax
  406965:	8b 05 85 4c 23 00    	mov    0x234c85(%rip),%eax        # 63b5f0 <DebugLevel>
  40696b:	25 00 00 01 00       	and    $0x10000,%eax
  406970:	85 c0                	test   %eax,%eax
  406972:	74 19                	je     40698d <_ZN8CManager15CheckIAPVersionEi+0x47>
  406974:	ba 70 0a 43 00       	mov    $0x430a70,%edx
  406979:	be 70 02 43 00       	mov    $0x430270,%esi
  40697e:	bf 00 00 01 00       	mov    $0x10000,%edi
  406983:	b8 00 00 00 00       	mov    $0x0,%eax
  406988:	e8 2f 83 02 00       	call   42ecbc <_Z10DebugPrintiPKcz>
  40698d:	c6 45 e0 0a          	movb   $0xa,-0x20(%rbp)
  406991:	c6 45 e1 02          	movb   $0x2,-0x1f(%rbp)
  406995:	c6 45 e2 39          	movb   $0x39,-0x1e(%rbp)
  406999:	c6 45 e3 02          	movb   $0x2,-0x1d(%rbp)
  40699d:	c7 45 d8 04 00 00 00 	movl   $0x4,-0x28(%rbp)
  4069a4:	c7 45 dc 00 00 00 00 	movl   $0x0,-0x24(%rbp)
  4069ab:	8b 45 d8             	mov    -0x28(%rbp),%eax
  4069ae:	48 63 d0             	movslq %eax,%rdx
  4069b1:	48 8d 4d e0          	lea    -0x20(%rbp),%rcx
  4069b5:	8b 45 c4             	mov    -0x3c(%rbp),%eax
  4069b8:	48 89 ce             	mov    %rcx,%rsi
  4069bb:	89 c7                	mov    %eax,%edi
  4069bd:	e8 8e bd ff ff       	call   402750 <write@plt>
  4069c2:	89 45 dc             	mov    %eax,-0x24(%rbp)
  4069c5:	8b 45 dc             	mov    -0x24(%rbp),%eax
  4069c8:	3b 45 d8             	cmp    -0x28(%rbp),%eax
  4069cb:	75 44                	jne    406a11 <_ZN8CManager15CheckIAPVersionEi+0xcb>
  4069cd:	8b 45 c4             	mov    -0x3c(%rbp),%eax
  4069d0:	89 c7                	mov    %eax,%edi
  4069d2:	e8 0b fc ff ff       	call   4065e2 <_Z18WaitDeviceResponsei>
  4069d7:	85 c0                	test   %eax,%eax
  4069d9:	0f 94 c0             	sete   %al
  4069dc:	84 c0                	test   %al,%al
  4069de:	74 2a                	je     406a0a <_ZN8CManager15CheckIAPVersionEi+0xc4>
  4069e0:	8b 05 0a 4c 23 00    	mov    0x234c0a(%rip),%eax        # 63b5f0 <DebugLevel>
  4069e6:	25 00 00 01 00       	and    $0x10000,%eax
  4069eb:	85 c0                	test   %eax,%eax
  4069ed:	74 14                	je     406a03 <_ZN8CManager15CheckIAPVersionEi+0xbd>
  4069ef:	be 18 06 43 00       	mov    $0x430618,%esi
  4069f4:	bf 00 00 01 00       	mov    $0x10000,%edi
  4069f9:	b8 00 00 00 00       	mov    $0x0,%eax
  4069fe:	e8 b9 82 02 00       	call   42ecbc <_Z10DebugPrintiPKcz>
  406a03:	b8 02 00 00 00       	mov    $0x2,%eax
  406a08:	eb 34                	jmp    406a3e <_ZN8CManager15CheckIAPVersionEi+0xf8>
  406a0a:	b8 03 00 00 00       	mov    $0x3,%eax
  406a0f:	eb 2d                	jmp    406a3e <_ZN8CManager15CheckIAPVersionEi+0xf8>
  406a11:	8b 05 d9 4b 23 00    	mov    0x234bd9(%rip),%eax        # 63b5f0 <DebugLevel>
  406a17:	25 00 00 01 00       	and    $0x10000,%eax
  406a1c:	85 c0                	test   %eax,%eax
  406a1e:	74 19                	je     406a39 <_ZN8CManager15CheckIAPVersionEi+0xf3>
  406a20:	8b 45 dc             	mov    -0x24(%rbp),%eax
  406a23:	89 c2                	mov    %eax,%edx
  406a25:	be 3f 06 43 00       	mov    $0x43063f,%esi
  406a2a:	bf 00 00 01 00       	mov    $0x10000,%edi
  406a2f:	b8 00 00 00 00       	mov    $0x0,%eax
  406a34:	e8 83 82 02 00       	call   42ecbc <_Z10DebugPrintiPKcz>
  406a39:	b8 03 00 00 00       	mov    $0x3,%eax
  406a3e:	48 8b 5d e8          	mov    -0x18(%rbp),%rbx
  406a42:	64 48 33 1c 25 28 00 	xor    %fs:0x28,%rbx
  406a49:	00 00 
  406a4b:	74 05                	je     406a52 <_ZN8CManager15CheckIAPVersionEi+0x10c>
  406a4d:	e8 ce bf ff ff       	call   402a20 <__stack_chk_fail@plt>
  406a52:	48 83 c4 38          	add    $0x38,%rsp
  406a56:	5b                   	pop    %rbx
  406a57:	5d                   	pop    %rbp
  406a58:	c3                   	ret    
  406a59:	90                   	nop

0000000000406a5a <_ZN8CManager16CheckRS232DeviceEPc>:
  406a5a:	55                   	push   %rbp
  406a5b:	48 89 e5             	mov    %rsp,%rbp
  406a5e:	41 54                	push   %r12
  406a60:	53                   	push   %rbx
  406a61:	48 83 ec 40          	sub    $0x40,%rsp
  406a65:	48 89 7d b8          	mov    %rdi,-0x48(%rbp)
  406a69:	48 89 75 b0          	mov    %rsi,-0x50(%rbp)
  406a6d:	c7 45 c8 ff ff ff ff 	movl   $0xffffffff,-0x38(%rbp)
  406a74:	c7 45 e0 80 25 00 00 	movl   $0x2580,-0x20(%rbp)
  406a7b:	c7 45 e4 00 4b 00 00 	movl   $0x4b00,-0x1c(%rbp)
  406a82:	c7 45 e8 00 e1 00 00 	movl   $0xe100,-0x18(%rbp)
  406a89:	c7 45 ec 00 c2 01 00 	movl   $0x1c200,-0x14(%rbp)
  406a90:	8b 05 5a 4b 23 00    	mov    0x234b5a(%rip),%eax        # 63b5f0 <DebugLevel>
  406a96:	25 00 00 01 00       	and    $0x10000,%eax
  406a9b:	85 c0                	test   %eax,%eax
  406a9d:	74 20                	je     406abf <_ZN8CManager16CheckRS232DeviceEPc+0x65>
  406a9f:	48 8b 45 b0          	mov    -0x50(%rbp),%rax
  406aa3:	48 89 c1             	mov    %rax,%rcx
  406aa6:	ba 80 0a 43 00       	mov    $0x430a80,%edx
  406aab:	be e4 02 43 00       	mov    $0x4302e4,%esi
  406ab0:	bf 00 00 01 00       	mov    $0x10000,%edi
  406ab5:	b8 00 00 00 00       	mov    $0x0,%eax
  406aba:	e8 fd 81 02 00       	call   42ecbc <_Z10DebugPrintiPKcz>
  406abf:	c6 05 7a 4c 23 00 00 	movb   $0x0,0x234c7a(%rip)        # 63b740 <_ZL9m_Parsing>
  406ac6:	48 8b 45 b0          	mov    -0x50(%rbp),%rax
  406aca:	be 02 08 00 00       	mov    $0x802,%esi
  406acf:	48 89 c7             	mov    %rax,%rdi
  406ad2:	b8 00 00 00 00       	mov    $0x0,%eax
  406ad7:	e8 94 bd ff ff       	call   402870 <open@plt>
  406adc:	89 45 c8             	mov    %eax,-0x38(%rbp)
  406adf:	83 7d c8 00          	cmpl   $0x0,-0x38(%rbp)
  406ae3:	79 39                	jns    406b1e <_ZN8CManager16CheckRS232DeviceEPc+0xc4>
  406ae5:	8b 05 05 4b 23 00    	mov    0x234b05(%rip),%eax        # 63b5f0 <DebugLevel>
  406aeb:	25 00 00 01 00       	and    $0x10000,%eax
  406af0:	85 c0                	test   %eax,%eax
  406af2:	74 20                	je     406b14 <_ZN8CManager16CheckRS232DeviceEPc+0xba>
  406af4:	8b 55 c8             	mov    -0x38(%rbp),%edx
  406af7:	48 8b 45 b0          	mov    -0x50(%rbp),%rax
  406afb:	89 d1                	mov    %edx,%ecx
  406afd:	48 89 c2             	mov    %rax,%rdx
  406b00:	be f8 02 43 00       	mov    $0x4302f8,%esi
  406b05:	bf 00 00 01 00       	mov    $0x10000,%edi
  406b0a:	b8 00 00 00 00       	mov    $0x0,%eax
  406b0f:	e8 a8 81 02 00       	call   42ecbc <_Z10DebugPrintiPKcz>
  406b14:	b8 ff ff ff ff       	mov    $0xffffffff,%eax
  406b19:	e9 87 02 00 00       	jmp    406da5 <_ZN8CManager16CheckRS232DeviceEPc+0x34b>
  406b1e:	48 8b 45 b8          	mov    -0x48(%rbp),%rax
  406b22:	48 8b 40 08          	mov    0x8(%rax),%rax
  406b26:	8b 80 b8 01 00 00    	mov    0x1b8(%rax),%eax
  406b2c:	85 c0                	test   %eax,%eax
  406b2e:	0f 85 29 01 00 00    	jne    406c5d <_ZN8CManager16CheckRS232DeviceEPc+0x203>
  406b34:	c7 45 c4 00 00 00 00 	movl   $0x0,-0x3c(%rbp)
  406b3b:	e9 ff 00 00 00       	jmp    406c3f <_ZN8CManager16CheckRS232DeviceEPc+0x1e5>
